

Microchip MPLAB XC8 Assembler V2.36 build 20220127204148 
                                                                                               Thu Jul 14 10:01:46 2022

Microchip MPLAB XC8 C Compiler v2.36 (Free license) build 20220127204148 Og1 
     1                           	processor	18F4550
     2                           	fnconf	rparam,??,?,0
     3                           	pagewidth 120
     4                           	opt	flic
     5                           	psect	idataBANK0,global,class=CODE,delta=1,noexec
     6                           	psect	smallconst,global,reloc=2,class=SMALLCONST,delta=1,noexec
     7                           	psect	cinit,global,reloc=2,class=CODE,delta=1
     8                           	psect	bssBANK0,global,class=BANK0,space=1,delta=1,lowdata,noexec
     9                           	psect	dataBANK0,global,class=BANK0,space=1,delta=1,lowdata,noexec
    10                           	psect	bssBANK1,global,class=BANK1,space=1,delta=1,lowdata,noexec
    11                           	psect	cstackBANK0,global,class=BANK0,space=1,delta=1,lowdata,noexec
    12                           	psect	cstackCOMRAM,global,class=COMRAM,space=1,delta=1,lowdata,noexec
    13                           	psect	text0,global,reloc=2,class=CODE,delta=1
    14                           	psect	text1,global,reloc=2,class=CODE,delta=1,group=3
    15                           	psect	text2,global,reloc=2,class=CODE,delta=1
    16                           	psect	text3,global,reloc=2,class=CODE,delta=1,group=3
    17                           	psect	text4,global,reloc=2,class=CODE,delta=1,group=1
    18                           	psect	text5,global,reloc=2,class=CODE,delta=1,group=1
    19                           	psect	text6,global,reloc=2,class=CODE,delta=1,group=1
    20                           	psect	text7,global,reloc=2,class=CODE,delta=1,group=1
    21                           	psect	text8,global,reloc=2,class=CODE,delta=1,group=3
    22                           	psect	text9,global,reloc=2,class=CODE,delta=1,group=3
    23                           	psect	text10,global,reloc=2,class=CODE,delta=1,group=3
    24                           	psect	text11,global,reloc=2,class=CODE,delta=1,group=3
    25                           	psect	text12,global,reloc=2,class=CODE,delta=1,group=3
    26                           	psect	text13,global,reloc=2,class=CODE,delta=1,group=2
    27                           	psect	text14,global,reloc=2,class=CODE,delta=1,group=2
    28                           	psect	text15,global,reloc=2,class=CODE,delta=1
    29                           	psect	text16,global,reloc=2,class=CODE,delta=1
    30                           	psect	text17,global,reloc=2,class=CODE,delta=1
    31                           	psect	text18,global,reloc=2,class=CODE,delta=1
    32                           	psect	text19,global,reloc=2,class=CODE,delta=1
    33                           	psect	text20,global,reloc=2,class=CODE,delta=1
    34                           	psect	text21,global,reloc=2,class=CODE,delta=1
    35                           	psect	text22,global,reloc=2,class=CODE,delta=1
    36                           	psect	text23,global,reloc=2,class=CODE,delta=1
    37                           	psect	text24,global,reloc=2,class=CODE,delta=1
    38                           	psect	text25,global,reloc=2,class=CODE,delta=1
    39                           	psect	text26,global,reloc=2,class=CODE,delta=1
    40                           	psect	text27,global,reloc=2,class=CODE,delta=1
    41                           	psect	text28,global,reloc=2,class=CODE,delta=1
    42                           	psect	text29,global,reloc=2,class=CODE,delta=1
    43                           	psect	intsave_regs,global,class=BIGRAM,space=1,delta=1,noexec
    44                           	psect	rparam,global,class=COMRAM,space=1,delta=1,noexec
    45                           	psect	idloc,global,abs,ovrld,class=IDLOC,space=5,delta=1,noexec
    46                           	psect	config,global,abs,ovrld,class=CONFIG,space=4,delta=1,noexec
    47  0000                     
    48                           ; Version 2.20
    49                           ; Generated 12/02/2020 GMT
    50                           ; 
    51                           ; Copyright © 2020, Microchip Technology Inc. and its subsidiaries ("Microchip")
    52                           ; All rights reserved.
    53                           ; 
    54                           ; This software is developed by Microchip Technology Inc. and its subsidiaries ("Microch
      +                          ip").
    55                           ; 
    56                           ; Redistribution and use in source and binary forms, with or without modification, are
    57                           ; permitted provided that the following conditions are met:
    58                           ; 
    59                           ;     1. Redistributions of source code must retain the above copyright notice, this lis
      +                          t of
    60                           ;        conditions and the following disclaimer.
    61                           ; 
    62                           ;     2. Redistributions in binary form must reproduce the above copyright notice, this 
      +                          list
    63                           ;        of conditions and the following disclaimer in the documentation and/or other
    64                           ;        materials provided with the distribution.
    65                           ; 
    66                           ;     3. Microchip's name may not be used to endorse or promote products derived from th
      +                          is
    67                           ;        software without specific prior written permission.
    68                           ; 
    69                           ; THIS SOFTWARE IS PROVIDED BY MICROCHIP "AS IS" AND ANY EXPRESS OR IMPLIED WARRANTIES,
    70                           ; INCLUDING, BUT NOT LIMITED TO, THE IMPLIED WARRANTIES OF MERCHANTABILITY AND FITNESS F
      +                          OR
    71                           ; PURPOSE ARE DISCLAIMED.  IN NO EVENT SHALL MICROCHIP BE LIABLE FOR ANY DIRECT, INDIREC
      +                          T,
    72                           ; INCIDENTAL, SPECIAL, EXEMPLARY, OR CONSEQUENTIAL DAMAGES (INCLUDING BUT NOT LIMITED TO
    73                           ; PROCUREMENT OF SUBSTITUTE GOODS OR SERVICES; LOSS OF USE, DATA OR PROFITS; OR BUSINESS
    74                           ; INTERRUPTION) HOWSOEVER CAUSED AND ON ANY THEORY OF LIABILITY, WHETHER IN CONTRACT, ST
      +                          RICT
    75                           ; LIABILITY, OR TORT (INCLUDING NEGLIGENCE OR OTHERWISE) ARISING IN ANY WAY OUT OF THE U
      +                          SE OF
    76                           ; THIS SOFTWARE, EVEN IF ADVISED OF THE POSSIBILITY OF SUCH DAMAGE.
    77                           ; 
    78                           ; 
    79                           ; Code-generator required, PIC18F4550 Definitions
    80                           ; 
    81                           ; SFR Addresses
    82  0000                     
    83                           	psect	idataBANK0
    84  002012                     __pidataBANK0:
    85                           	callstack 0
    86                           
    87                           ;initializer for _tiempo_bloqueo
    88  002012  0014               	dw	20
    89  002014  0000               	dw	0
    90                           
    91                           ;initializer for _Tiempo_Incorrecto
    92  002016  07D0               	dw	2000
    93  002018  0000               	dw	0
    94                           
    95                           ;initializer for _Tiempo_Apertura
    96  00201A  0BB8               	dw	3000
    97  00201C  0000               	dw	0
    98                           
    99                           ;initializer for _clave
   100  00201E  32                 	db	50
   101  00201F  35                 	db	53
   102  002020  30                 	db	48
   103  002021  31                 	db	49
   104  002022  00                 	db	0
   105  0000                     _LATBbits	set	3978
   106  0000                     _TRISBbits	set	3987
   107  0000                     _LATCbits	set	3979
   108  0000                     _RD3	set	31771
   109  0000                     _RD2	set	31770
   110  0000                     _RD7	set	31775
   111  0000                     _RD6	set	31774
   112  0000                     _RD5	set	31773
   113  0000                     _PORTAbits	set	3968
   114  0000                     _RD4	set	31772
   115  0000                     _LATC	set	3979
   116  0000                     _TRISD	set	3989
   117  0000                     _LATA0	set	31816
   118  0000                     _ADCON1bits	set	4033
   119  0000                     _OSCCON	set	4051
   120  0000                     _LATDbits	set	3980
   121  0000                     _TRISAbits	set	3986
   122  0000                     _TRISC	set	3988
   123  0000                     _PORTBbits	set	3969
   124                           
   125                           	psect	smallconst
   126  000800                     __psmallconst:
   127                           	callstack 0
   128  000800  00                 	db	0
   129  000801                     STR_3:
   130  000801  20                 	db	32
   131  000802  20                 	db	32
   132  000803  20                 	db	32
   133  000804  20                 	db	32
   134  000805  43                 	db	67	;'C'
   135  000806  45                 	db	69	;'E'
   136  000807  52                 	db	82	;'R'
   137  000808  52                 	db	82	;'R'
   138  000809  41                 	db	65	;'A'
   139  00080A  44                 	db	68	;'D'
   140  00080B  55                 	db	85	;'U'
   141  00080C  52                 	db	82	;'R'
   142  00080D  41                 	db	65	;'A'
   143  00080E  20                 	db	32
   144  00080F  20                 	db	32
   145  000810  20                 	db	32
   146  000811  00                 	db	0
   147  000812                     STR_9:
   148  000812  20                 	db	32
   149  000813  20                 	db	32
   150  000814  20                 	db	32
   151  000815  49                 	db	73	;'I'
   152  000816  4E                 	db	78	;'N'
   153  000817  43                 	db	67	;'C'
   154  000818  4F                 	db	79	;'O'
   155  000819  52                 	db	82	;'R'
   156  00081A  52                 	db	82	;'R'
   157  00081B  45                 	db	69	;'E'
   158  00081C  43                 	db	67	;'C'
   159  00081D  54                 	db	84	;'T'
   160  00081E  41                 	db	65	;'A'
   161  00081F  20                 	db	32
   162  000820  20                 	db	32
   163  000821  20                 	db	32
   164  000822  00                 	db	0
   165  000823                     STR_7:
   166  000823  20                 	db	32
   167  000824  20                 	db	32
   168  000825  20                 	db	32
   169  000826  42                 	db	66	;'B'
   170  000827  49                 	db	73	;'I'
   171  000828  45                 	db	69	;'E'
   172  000829  4E                 	db	78	;'N'
   173  00082A  56                 	db	86	;'V'
   174  00082B  45                 	db	69	;'E'
   175  00082C  4E                 	db	78	;'N'
   176  00082D  49                 	db	73	;'I'
   177  00082E  44                 	db	68	;'D'
   178  00082F  4F                 	db	79	;'O'
   179  000830  20                 	db	32
   180  000831  20                 	db	32
   181  000832  20                 	db	32
   182  000833  00                 	db	0
   183  000834                     STR_4:
   184  000834  20                 	db	32
   185  000835  20                 	db	32
   186  000836  20                 	db	32
   187  000837  45                 	db	69	;'E'
   188  000838  4C                 	db	76	;'L'
   189  000839  45                 	db	69	;'E'
   190  00083A  43                 	db	67	;'C'
   191  00083B  54                 	db	84	;'T'
   192  00083C  52                 	db	82	;'R'
   193  00083D  4F                 	db	79	;'O'
   194  00083E  4E                 	db	78	;'N'
   195  00083F  49                 	db	73	;'I'
   196  000840  43                 	db	67	;'C'
   197  000841  41                 	db	65	;'A'
   198  000842  20                 	db	32
   199  000843  20                 	db	32
   200  000844  00                 	db	0
   201  000845                     STR_6:
   202  000845  20                 	db	32
   203  000846  63                 	db	99	;'c'
   204  000847  6C                 	db	108	;'l'
   205  000848  61                 	db	97	;'a'
   206  000849  76                 	db	118	;'v'
   207  00084A  65                 	db	101	;'e'
   208  00084B  20                 	db	32
   209  00084C  63                 	db	99	;'c'
   210  00084D  6F                 	db	111	;'o'
   211  00084E  72                 	db	114	;'r'
   212  00084F  72                 	db	114	;'r'
   213  000850  65                 	db	101	;'e'
   214  000851  63                 	db	99	;'c'
   215  000852  74                 	db	116	;'t'
   216  000853  61                 	db	97	;'a'
   217  000854  20                 	db	32
   218  000855  00                 	db	0
   219  000856                     STR_5:
   220  000856  49                 	db	73	;'I'
   221  000857  4E                 	db	78	;'N'
   222  000858  47                 	db	71	;'G'
   223  000859  52                 	db	82	;'R'
   224  00085A  45                 	db	69	;'E'
   225  00085B  53                 	db	83	;'S'
   226  00085C  45                 	db	69	;'E'
   227  00085D  20                 	db	32
   228  00085E  50                 	db	80	;'P'
   229  00085F  41                 	db	65	;'A'
   230  000860  53                 	db	83	;'S'
   231  000861  53                 	db	83	;'S'
   232  000862  57                 	db	87	;'W'
   233  000863  4F                 	db	79	;'O'
   234  000864  52                 	db	82	;'R'
   235  000865  44                 	db	68	;'D'
   236  000866  00                 	db	0
   237  000867                     STR_8:
   238  000867  20                 	db	32
   239  000868  20                 	db	32
   240  000869  20                 	db	32
   241  00086A  20                 	db	32
   242  00086B  20                 	db	32
   243  00086C  43                 	db	67	;'C'
   244  00086D  4C                 	db	76	;'L'
   245  00086E  41                 	db	65	;'A'
   246  00086F  56                 	db	86	;'V'
   247  000870  45                 	db	69	;'E'
   248  000871  20                 	db	32
   249  000872  20                 	db	32
   250  000873  20                 	db	32
   251  000874  20                 	db	32
   252  000875  20                 	db	32
   253  000876  00                 	db	0
   254  000877                     STR_1:
   255  000877  20                 	db	32
   256  000878  20                 	db	32
   257  000879  50                 	db	80	;'P'
   258  00087A  52                 	db	82	;'R'
   259  00087B  4F                 	db	79	;'O'
   260  00087C  59                 	db	89	;'Y'
   261  00087D  45                 	db	69	;'E'
   262  00087E  43                 	db	67	;'C'
   263  00087F  54                 	db	84	;'T'
   264  000880  4F                 	db	79	;'O'
   265  000881  20                 	db	32
   266  000882  43                 	db	67	;'C'
   267  000883  41                 	db	65	;'A'
   268  000884  53                 	db	83	;'S'
   269  000885  41                 	db	65	;'A'
   270  000886  00                 	db	0
   271  000887                     STR_11:
   272  000887  20                 	db	32
   273  000888  20                 	db	32
   274  000889  42                 	db	66	;'B'
   275  00088A  4C                 	db	76	;'L'
   276  00088B  4F                 	db	79	;'O'
   277  00088C  51                 	db	81	;'Q'
   278  00088D  55                 	db	85	;'U'
   279  00088E  45                 	db	69	;'E'
   280  00088F  41                 	db	65	;'A'
   281  000890  44                 	db	68	;'D'
   282  000891  4F                 	db	79	;'O'
   283  000892  20                 	db	32
   284  000893  25                 	db	37
   285  000894  64                 	db	100	;'d'
   286  000895  73                 	db	115	;'s'
   287  000896  00                 	db	0
   288  000897                     STR_2:
   289  000897  20                 	db	32
   290  000898  20                 	db	32
   291  000899  20                 	db	32
   292  00089A  49                 	db	73	;'I'
   293  00089B  4E                 	db	78	;'N'
   294  00089C  54                 	db	84	;'T'
   295  00089D  45                 	db	69	;'E'
   296  00089E  4C                 	db	76	;'L'
   297  00089F  49                 	db	73	;'I'
   298  0008A0  47                 	db	71	;'G'
   299  0008A1  45                 	db	69	;'E'
   300  0008A2  4E                 	db	78	;'N'
   301  0008A3  54                 	db	84	;'T'
   302  0008A4  45                 	db	69	;'E'
   303  0008A5  00                 	db	0
   304  0008A6                     STR_10:
   305  0008A6  20                 	db	32
   306  0008A7  20                 	db	32
   307  0008A8  4D                 	db	77	;'M'
   308  0008A9  41                 	db	65	;'A'
   309  0008AA  58                 	db	88	;'X'
   310  0008AB  20                 	db	32
   311  0008AC  49                 	db	73	;'I'
   312  0008AD  4E                 	db	78	;'N'
   313  0008AE  54                 	db	84	;'T'
   314  0008AF  45                 	db	69	;'E'
   315  0008B0  4E                 	db	78	;'N'
   316  0008B1  54                 	db	84	;'T'
   317  0008B2  4F                 	db	79	;'O'
   318  0008B3  53                 	db	83	;'S'
   319  0008B4  00                 	db	0
   320  0008B5                     STR_12:
   321  0008B5  20                 	db	32
   322  0008B6  20                 	db	32
   323  0008B7  20                 	db	32
   324  0008B8  54                 	db	84	;'T'
   325  0008B9  65                 	db	101	;'e'
   326  0008BA  6D                 	db	109	;'m'
   327  0008BB  70                 	db	112	;'p'
   328  0008BC  20                 	db	32
   329  0008BD  62                 	db	98	;'b'
   330  0008BE  61                 	db	97	;'a'
   331  0008BF  6A                 	db	106	;'j'
   332  0008C0  61                 	db	97	;'a'
   333  0008C1  00                 	db	0
   334  0008C2                     STR_16:
   335  0008C2  20                 	db	32
   336  0008C3  20                 	db	32
   337  0008C4  20                 	db	32
   338  0008C5  54                 	db	84	;'T'
   339  0008C6  65                 	db	101	;'e'
   340  0008C7  6D                 	db	109	;'m'
   341  0008C8  70                 	db	112	;'p'
   342  0008C9  20                 	db	32
   343  0008CA  61                 	db	97	;'a'
   344  0008CB  6C                 	db	108	;'l'
   345  0008CC  74                 	db	116	;'t'
   346  0008CD  61                 	db	97	;'a'
   347  0008CE  00                 	db	0
   348  0008CF                     STR_21:
   349  0008CF  68                 	db	104	;'h'
   350  0008D0  75                 	db	117	;'u'
   351  0008D1  6D                 	db	109	;'m'
   352  0008D2  65                 	db	101	;'e'
   353  0008D3  64                 	db	100	;'d'
   354  0008D4  61                 	db	97	;'a'
   355  0008D5  64                 	db	100	;'d'
   356  0008D6  3A                 	db	58	;':'
   357  0008D7  20                 	db	32
   358  0008D8  25                 	db	37
   359  0008D9  64                 	db	100	;'d'
   360  0008DA  00                 	db	0
   361  0008DB                     STR_14:
   362  0008DB  20                 	db	32
   363  0008DC  20                 	db	32
   364  0008DD  48                 	db	72	;'H'
   365  0008DE  75                 	db	117	;'u'
   366  0008DF  6D                 	db	109	;'m'
   367  0008E0  3A                 	db	58	;':'
   368  0008E1  25                 	db	37
   369  0008E2  64                 	db	100	;'d'
   370  0008E3  00                 	db	0
   371  0008E4                     STR_13:
   372  0008E4  54                 	db	84	;'T'
   373  0008E5  65                 	db	101	;'e'
   374  0008E6  6D                 	db	109	;'m'
   375  0008E7  70                 	db	112	;'p'
   376  0008E8  3A                 	db	58	;':'
   377  0008E9  25                 	db	37
   378  0008EA  64                 	db	100	;'d'
   379  0008EB  00                 	db	0
   380  0008EC                     STR_15:
   381  0008EC  25                 	db	37
   382  0008ED  00                 	db	0
   383  0008EE  00                 	db	0	; dummy byte at the end
   384  0000                     
   385                           ; #config settings
   386                           
   387                           	psect	cinit
   388  001E62                     __pcinit:
   389                           	callstack 0
   390  001E62                     start_initialization:
   391                           	callstack 0
   392  001E62                     __initialization:
   393                           	callstack 0
   394                           
   395                           ; Initialize objects allocated to BANK0 (17 bytes)
   396                           ; load TBLPTR registers with __pidataBANK0
   397  001E62  0E12               	movlw	low __pidataBANK0
   398  001E64  6EF6               	movwf	tblptrl,c
   399  001E66  0E20               	movlw	high __pidataBANK0
   400  001E68  6EF7               	movwf	tblptrh,c
   401  001E6A  0E00               	movlw	low (__pidataBANK0 shr (0+16))
   402  001E6C  6EF8               	movwf	tblptru,c
   403  001E6E  EE00  F0D0         	lfsr	0,__pdataBANK0
   404  001E72  EE10 F011          	lfsr	1,17
   405  001E76                     copy_data0:
   406  001E76  0009               	tblrd		*+
   407  001E78  CFF5 FFEE          	movff	tablat,postinc0
   408  001E7C  50E5               	movf	postdec1,w,c
   409  001E7E  50E1               	movf	fsr1l,w,c
   410  001E80  E1FA               	bnz	copy_data0
   411                           
   412                           ; Clear objects allocated to BANK1 (32 bytes)
   413  001E82  EE01  F000         	lfsr	0,__pbssBANK1
   414  001E86  0E20               	movlw	32
   415  001E88                     clear_0:
   416  001E88  6AEE               	clrf	postinc0,c
   417  001E8A  06E8               	decf	wreg,f,c
   418  001E8C  E1FD               	bnz	clear_0
   419                           
   420                           ; Clear objects allocated to BANK0 (47 bytes)
   421  001E8E  EE00  F0A1         	lfsr	0,__pbssBANK0
   422  001E92  0E2F               	movlw	47
   423  001E94                     clear_1:
   424  001E94  6AEE               	clrf	postinc0,c
   425  001E96  06E8               	decf	wreg,f,c
   426  001E98  E1FD               	bnz	clear_1
   427  001E9A                     end_of_initialization:
   428                           	callstack 0
   429  001E9A                     __end_of__initialization:
   430                           	callstack 0
   431  001E9A  0E00               	movlw	low (__Lmediumconst shr (0+16))
   432  001E9C  6EF8               	movwf	tblptru,c
   433  001E9E  0100               	movlb	0
   434  001EA0  EFFC  F007         	goto	_main	;jump to C main() function
   435                           
   436                           	psect	bssBANK0
   437  0000A1                     __pbssBANK0:
   438                           	callstack 0
   439  0000A1                     _Buffer_LCD:
   440                           	callstack 0
   441  0000A1                     	ds	16
   442  0000B1                     _buffer_ldr:
   443                           	callstack 0
   444  0000B1                     	ds	16
   445  0000C1                     _nout:
   446                           	callstack 0
   447  0000C1                     	ds	2
   448  0000C3                     _width:
   449                           	callstack 0
   450  0000C3                     	ds	2
   451  0000C5                     _prec:
   452                           	callstack 0
   453  0000C5                     	ds	2
   454  0000C7                     _flags:
   455                           	callstack 0
   456  0000C7                     	ds	2
   457  0000C9                     _K:
   458                           	callstack 0
   459  0000C9                     	ds	1
   460  0000CA                     _Contador_Tecla:
   461                           	callstack 0
   462  0000CA                     	ds	1
   463  0000CB                     _Password:
   464                           	callstack 0
   465  0000CB                     	ds	5
   466                           
   467                           	psect	dataBANK0
   468  0000D0                     __pdataBANK0:
   469                           	callstack 0
   470  0000D0                     _tiempo_bloqueo:
   471                           	callstack 0
   472  0000D0                     	ds	4
   473  0000D4                     _Tiempo_Incorrecto:
   474                           	callstack 0
   475  0000D4                     	ds	4
   476  0000D8                     _Tiempo_Apertura:
   477                           	callstack 0
   478  0000D8                     	ds	4
   479  0000DC                     _clave:
   480                           	callstack 0
   481  0000DC                     	ds	5
   482                           
   483                           	psect	bssBANK1
   484  000100                     __pbssBANK1:
   485                           	callstack 0
   486  000100                     _dbuf:
   487                           	callstack 0
   488  000100                     	ds	32
   489                           
   490                           	psect	cstackBANK0
   491  000060                     __pcstackBANK0:
   492                           	callstack 0
   493  000060                     sprintf@ap:
   494                           	callstack 0
   495                           
   496                           ; 2 bytes @ 0x0
   497  000060                     	ds	2
   498  000062                     sprintf@f:
   499                           	callstack 0
   500                           
   501                           ; 11 bytes @ 0x2
   502  000062                     	ds	11
   503  00006D                     ??_dht11:
   504                           
   505                           ; 1 bytes @ 0xD
   506  00006D                     	ds	2
   507  00006F                     dht11@value:
   508                           	callstack 0
   509                           
   510                           ; 10 bytes @ 0xF
   511  00006F                     	ds	10
   512  000079                     dht11@ldr_ouput:
   513                           	callstack 0
   514                           
   515                           ; 2 bytes @ 0x19
   516  000079                     	ds	2
   517  00007B                     dht11@RH_Integral:
   518                           	callstack 0
   519                           
   520                           ; 1 bytes @ 0x1B
   521  00007B                     	ds	1
   522  00007C                     dht11@T_Integral:
   523                           	callstack 0
   524                           
   525                           ; 1 bytes @ 0x1C
   526  00007C                     	ds	1
   527  00007D                     ??_main:
   528                           
   529                           ; 1 bytes @ 0x1D
   530  00007D                     	ds	2
   531  00007F                     main@tiempo:
   532                           	callstack 0
   533                           
   534                           ; 30 bytes @ 0x1F
   535  00007F                     	ds	30
   536  00009D                     main@intentos:
   537                           	callstack 0
   538                           
   539                           ; 2 bytes @ 0x3D
   540  00009D                     	ds	2
   541  00009F                     main@j:
   542                           	callstack 0
   543                           
   544                           ; 2 bytes @ 0x3F
   545  00009F                     	ds	2
   546                           
   547                           	psect	cstackCOMRAM
   548  000001                     __pcstackCOMRAM:
   549                           	callstack 0
   550  000001                     ??_Keypad_Get_Char:
   551  000001                     ??_DHT11_Start:
   552  000001                     ?_strcmp:
   553                           	callstack 0
   554  000001                     ?_LDR_funcion:
   555                           	callstack 0
   556  000001                     ?_strlen:
   557                           	callstack 0
   558  000001                     ?___aodiv:
   559                           	callstack 0
   560  000001                     ?___aomod:
   561                           	callstack 0
   562  000001                     Lcd_Port@a:
   563                           	callstack 0
   564  000001                     DHT11_ReadData@i:
   565                           	callstack 0
   566  000001                     encender_lampara@ldr_output:
   567                           	callstack 0
   568  000001                     fputc@c:
   569                           	callstack 0
   570  000001                     strcmp@l:
   571                           	callstack 0
   572  000001                     strlen@s:
   573                           	callstack 0
   574  000001                     ___aodiv@dividend:
   575                           	callstack 0
   576  000001                     ___aomod@dividend:
   577                           	callstack 0
   578                           
   579                           ; 8 bytes @ 0x0
   580  000001                     	ds	1
   581  000002                     ??_Lcd_Cmd:
   582  000002                     lcd_write_char@temp:
   583                           	callstack 0
   584  000002                     DHT11_ReadData@data:
   585                           	callstack 0
   586                           
   587                           ; 1 bytes @ 0x1
   588  000002                     	ds	1
   589  000003                     ??_LDR_funcion:
   590  000003                     Lcd_Cmd@a:
   591                           	callstack 0
   592  000003                     lcd_write_char@y:
   593                           	callstack 0
   594  000003                     fputc@fp:
   595                           	callstack 0
   596  000003                     strcmp@r:
   597                           	callstack 0
   598  000003                     strlen@a:
   599                           	callstack 0
   600                           
   601                           ; 2 bytes @ 0x2
   602  000003                     	ds	1
   603  000004                     ??_lcd_init:
   604  000004                     lcd_gotoxy@b:
   605                           	callstack 0
   606  000004                     lcd_write_char@a:
   607                           	callstack 0
   608  000004                     LDR_funcion@ldr_data:
   609                           	callstack 0
   610                           
   611                           ; 2 bytes @ 0x3
   612  000004                     	ds	1
   613  000005                     ??_strcmp:
   614  000005                     ??_fputc:
   615  000005                     lcd_gotoxy@a:
   616                           	callstack 0
   617  000005                     lcd_putc@a:
   618                           	callstack 0
   619                           
   620                           ; 2 bytes @ 0x4
   621  000005                     	ds	1
   622  000006                     lcd_gotoxy@z:
   623                           	callstack 0
   624                           
   625                           ; 1 bytes @ 0x5
   626  000006                     	ds	1
   627  000007                     ??_lcd_putc:
   628  000007                     lcd_gotoxy@y:
   629                           	callstack 0
   630                           
   631                           ; 1 bytes @ 0x6
   632  000007                     	ds	1
   633  000008                     lcd_gotoxy@temp:
   634                           	callstack 0
   635                           
   636                           ; 1 bytes @ 0x7
   637  000008                     	ds	1
   638  000009                     lcd_putc@i:
   639                           	callstack 0
   640  000009                     ___aodiv@divisor:
   641                           	callstack 0
   642  000009                     ___aomod@divisor:
   643                           	callstack 0
   644                           
   645                           ; 8 bytes @ 0x8
   646  000009                     	ds	1
   647  00000A                     fputs@s:
   648                           	callstack 0
   649                           
   650                           ; 2 bytes @ 0x9
   651  00000A                     	ds	2
   652  00000C                     fputs@fp:
   653                           	callstack 0
   654                           
   655                           ; 2 bytes @ 0xB
   656  00000C                     	ds	2
   657  00000E                     fputs@c:
   658                           	callstack 0
   659                           
   660                           ; 1 bytes @ 0xD
   661  00000E                     	ds	1
   662  00000F                     fputs@i:
   663                           	callstack 0
   664                           
   665                           ; 2 bytes @ 0xE
   666  00000F                     	ds	2
   667  000011                     ?_pad:
   668                           	callstack 0
   669  000011                     ___aodiv@counter:
   670                           	callstack 0
   671  000011                     ___aomod@counter:
   672                           	callstack 0
   673  000011                     pad@fp:
   674                           	callstack 0
   675                           
   676                           ; 2 bytes @ 0x10
   677  000011                     	ds	1
   678  000012                     ___aodiv@sign:
   679                           	callstack 0
   680  000012                     ___aomod@sign:
   681                           	callstack 0
   682                           
   683                           ; 1 bytes @ 0x11
   684  000012                     	ds	1
   685  000013                     ?_abs:
   686                           	callstack 0
   687  000013                     pad@buf:
   688                           	callstack 0
   689  000013                     abs@a:
   690                           	callstack 0
   691  000013                     ___aodiv@quotient:
   692                           	callstack 0
   693                           
   694                           ; 8 bytes @ 0x12
   695  000013                     	ds	2
   696  000015                     ??_abs:
   697  000015                     pad@p:
   698                           	callstack 0
   699                           
   700                           ; 2 bytes @ 0x14
   701  000015                     	ds	2
   702  000017                     ??_pad:
   703                           
   704                           ; 1 bytes @ 0x16
   705  000017                     	ds	1
   706  000018                     pad@i:
   707                           	callstack 0
   708                           
   709                           ; 2 bytes @ 0x17
   710  000018                     	ds	2
   711  00001A                     pad@w:
   712                           	callstack 0
   713                           
   714                           ; 2 bytes @ 0x19
   715  00001A                     	ds	2
   716  00001C                     ?_dtoa:
   717                           	callstack 0
   718  00001C                     dtoa@fp:
   719                           	callstack 0
   720                           
   721                           ; 2 bytes @ 0x1B
   722  00001C                     	ds	2
   723  00001E                     dtoa@d:
   724                           	callstack 0
   725                           
   726                           ; 8 bytes @ 0x1D
   727  00001E                     	ds	8
   728  000026                     ??_dtoa:
   729                           
   730                           ; 1 bytes @ 0x25
   731  000026                     	ds	8
   732  00002E                     _dtoa$1081:
   733                           	callstack 0
   734                           
   735                           ; 2 bytes @ 0x2D
   736  00002E                     	ds	2
   737  000030                     dtoa@p:
   738                           	callstack 0
   739                           
   740                           ; 2 bytes @ 0x2F
   741  000030                     	ds	2
   742  000032                     dtoa@w:
   743                           	callstack 0
   744                           
   745                           ; 2 bytes @ 0x31
   746  000032                     	ds	2
   747  000034                     dtoa@s:
   748                           	callstack 0
   749                           
   750                           ; 2 bytes @ 0x33
   751  000034                     	ds	2
   752  000036                     dtoa@n:
   753                           	callstack 0
   754                           
   755                           ; 8 bytes @ 0x35
   756  000036                     	ds	8
   757  00003E                     dtoa@i:
   758                           	callstack 0
   759                           
   760                           ; 2 bytes @ 0x3D
   761  00003E                     	ds	2
   762  000040                     ?_vfpfcnvrt:
   763                           	callstack 0
   764  000040                     vfpfcnvrt@fp:
   765                           	callstack 0
   766                           
   767                           ; 2 bytes @ 0x3F
   768  000040                     	ds	2
   769  000042                     vfpfcnvrt@fmt:
   770                           	callstack 0
   771                           
   772                           ; 2 bytes @ 0x41
   773  000042                     	ds	2
   774  000044                     vfpfcnvrt@ap:
   775                           	callstack 0
   776                           
   777                           ; 2 bytes @ 0x43
   778  000044                     	ds	2
   779  000046                     ??_vfpfcnvrt:
   780                           
   781                           ; 1 bytes @ 0x45
   782  000046                     	ds	2
   783  000048                     vfpfcnvrt@ll:
   784                           	callstack 0
   785                           
   786                           ; 8 bytes @ 0x47
   787  000048                     	ds	8
   788  000050                     ?_vfprintf:
   789                           	callstack 0
   790  000050                     vfprintf@fp:
   791                           	callstack 0
   792                           
   793                           ; 2 bytes @ 0x4F
   794  000050                     	ds	2
   795  000052                     vfprintf@fmt:
   796                           	callstack 0
   797                           
   798                           ; 2 bytes @ 0x51
   799  000052                     	ds	2
   800  000054                     vfprintf@ap:
   801                           	callstack 0
   802                           
   803                           ; 2 bytes @ 0x53
   804  000054                     	ds	2
   805  000056                     vfprintf@cfmt:
   806                           	callstack 0
   807                           
   808                           ; 2 bytes @ 0x55
   809  000056                     	ds	2
   810  000058                     ?_sprintf:
   811                           	callstack 0
   812  000058                     sprintf@s:
   813                           	callstack 0
   814                           
   815                           ; 2 bytes @ 0x57
   816  000058                     	ds	2
   817  00005A                     sprintf@fmt:
   818                           	callstack 0
   819                           
   820                           ; 2 bytes @ 0x59
   821  00005A                     	ds	6
   822  000060                     
   823                           ; 1 bytes @ 0x5F
   824 ;;
   825 ;;Main: autosize = 0, tempsize = 2, incstack = 0, save=0
   826 ;;
   827 ;; *************** function _main *****************
   828 ;; Defined at:
   829 ;;		line 66 in file "Teclado_Matricial_4x4_Cerradura_Electronica.c"
   830 ;; Parameters:    Size  Location     Type
   831 ;;		None
   832 ;; Auto vars:     Size  Location     Type
   833 ;;  j               2   63[BANK0 ] int 
   834 ;;  tiempo         30   31[BANK0 ] unsigned char [30]
   835 ;;  intentos        2   61[BANK0 ] int 
   836 ;; Return value:  Size  Location     Type
   837 ;;                  1    wreg      void 
   838 ;; Registers used:
   839 ;;		wreg, fsr1l, fsr1h, fsr2l, fsr2h, status,2, status,0, tblptrl, tblptrh, tblptru, cstack
   840 ;; Tracked objects:
   841 ;;		On entry : 0/0
   842 ;;		On exit  : 0/0
   843 ;;		Unchanged: 0/0
   844 ;; Data sizes:     COMRAM   BANK0   BANK1   BANK2   BANK3   BANK4   BANK5   BANK6   BANK7
   845 ;;      Params:         0       0       0       0       0       0       0       0       0
   846 ;;      Locals:         0      34       0       0       0       0       0       0       0
   847 ;;      Temps:          0       2       0       0       0       0       0       0       0
   848 ;;      Totals:         0      36       0       0       0       0       0       0       0
   849 ;;Total ram usage:       36 bytes
   850 ;; Hardware stack levels required when called: 9
   851 ;; This function calls:
   852 ;;		_Configuracion_Registros
   853 ;;		_Keypad_Get_Char
   854 ;;		_Keypad_Init
   855 ;;		_dht11
   856 ;;		_lcd_clear
   857 ;;		_lcd_gotoxy
   858 ;;		_lcd_init
   859 ;;		_lcd_putc
   860 ;;		_lcd_write_char
   861 ;;		_sprintf
   862 ;;		_strcmp
   863 ;; This function is called by:
   864 ;;		Startup code after reset
   865 ;; This function uses a non-reentrant model
   866 ;;
   867                           
   868                           	psect	text0
   869  000FF8                     __ptext0:
   870                           	callstack 0
   871  000FF8                     _main:
   872                           	callstack 22
   873  000FF8                     
   874                           ;Teclado_Matricial_4x4_Cerradura_Electronica.c: 68:     char tiempo[30];;Teclado_Matrici
      +                          al_4x4_Cerradura_Electronica.c: 69:     int intentos =0 ;
   875  000FF8  0E00               	movlw	0
   876  000FFA  0100               	movlb	0	; () banked
   877  000FFC  6F9E               	movwf	(main@intentos+1)& (0+255),b
   878  000FFE  0E00               	movlw	0
   879  001000  6F9D               	movwf	main@intentos& (0+255),b
   880                           
   881                           ;Teclado_Matricial_4x4_Cerradura_Electronica.c: 70:     OSCCON=0x72;
   882  001002  0E72               	movlw	114
   883  001004  6ED3               	movwf	211,c	;volatile
   884  001006                     
   885                           ; BSR set to: 0
   886                           ;Teclado_Matricial_4x4_Cerradura_Electronica.c: 71:     Configuracion_Registros();
   887  001006  EC19  F010         	call	_Configuracion_Registros	;wreg free
   888  00100A                     
   889                           ;Teclado_Matricial_4x4_Cerradura_Electronica.c: 72:     lcd_init();
   890  00100A  ECB6  F00D         	call	_lcd_init	;wreg free
   891  00100E                     
   892                           ;Teclado_Matricial_4x4_Cerradura_Electronica.c: 73:     Keypad_Init();
   893  00100E  EC00  F010         	call	_Keypad_Init	;wreg free
   894  001012                     
   895                           ;Teclado_Matricial_4x4_Cerradura_Electronica.c: 74:     LATC&=~((1<<0)|(1<<1)|(1<<2));
   896  001012  0EF8               	movlw	248
   897  001014  168B               	andwf	139,f,c	;volatile
   898  001016                     
   899                           ;Teclado_Matricial_4x4_Cerradura_Electronica.c: 75:     LATC&=~(1<<7);
   900  001016  9E8B               	bcf	139,7,c	;volatile
   901  001018                     
   902                           ;Teclado_Matricial_4x4_Cerradura_Electronica.c: 77:     LATCbits.LATC1=1;
   903  001018  828B               	bsf	139,1,c	;volatile
   904  00101A                     
   905                           ;Teclado_Matricial_4x4_Cerradura_Electronica.c: 78:     lcd_clear();
   906  00101A  EC12  F010         	call	_lcd_clear	;wreg free
   907  00101E                     
   908                           ;Teclado_Matricial_4x4_Cerradura_Electronica.c: 79:     lcd_gotoxy(1,1);
   909  00101E  0E01               	movlw	1
   910  001020  6E04               	movwf	lcd_gotoxy@b^0,c
   911  001022  0E01               	movlw	1
   912  001024  EC26  F00E         	call	_lcd_gotoxy
   913  001028                     
   914                           ;Teclado_Matricial_4x4_Cerradura_Electronica.c: 80:     lcd_putc("  PROYECTO CASA");
   915  001028  0E77               	movlw	low STR_1
   916  00102A  6E05               	movwf	lcd_putc@a^0,c
   917  00102C  0E08               	movlw	high STR_1
   918  00102E  6E06               	movwf	(lcd_putc@a+1)^0,c
   919  001030  EC77  F00D         	call	_lcd_putc	;wreg free
   920  001034                     
   921                           ;Teclado_Matricial_4x4_Cerradura_Electronica.c: 81:     lcd_gotoxy(2,1);
   922  001034  0E01               	movlw	1
   923  001036  6E04               	movwf	lcd_gotoxy@b^0,c
   924  001038  0E02               	movlw	2
   925  00103A  EC26  F00E         	call	_lcd_gotoxy
   926  00103E                     
   927                           ;Teclado_Matricial_4x4_Cerradura_Electronica.c: 82:     lcd_putc("   INTELIGENTE");
   928  00103E  0E97               	movlw	low STR_2
   929  001040  6E05               	movwf	lcd_putc@a^0,c
   930  001042  0E08               	movlw	high STR_2
   931  001044  6E06               	movwf	(lcd_putc@a+1)^0,c
   932  001046  EC77  F00D         	call	_lcd_putc	;wreg free
   933  00104A                     
   934                           ;Teclado_Matricial_4x4_Cerradura_Electronica.c: 83:     _delay((unsigned long)((2000)*(8
      +                          000000/4000.0)));
   935  00104A  0E15               	movlw	21
   936  00104C  0100               	movlb	0	; () banked
   937  00104E  6F7E               	movwf	(??_main+1)& (0+255),b
   938  001050  0E4B               	movlw	75
   939  001052  6F7D               	movwf	??_main& (0+255),b
   940  001054  0EBE               	movlw	190
   941  001056                     u2797:
   942  001056  2EE8               	decfsz	wreg,f,c
   943  001058  D7FE               	bra	u2797
   944  00105A  2F7D               	decfsz	??_main& (0+255),f,b
   945  00105C  D7FC               	bra	u2797
   946  00105E  2F7E               	decfsz	(??_main+1)& (0+255),f,b
   947  001060  D7FA               	bra	u2797
   948  001062  F000               	nop	
   949  001064                     
   950                           ;Teclado_Matricial_4x4_Cerradura_Electronica.c: 84:     lcd_gotoxy(1,1);
   951  001064  0E01               	movlw	1
   952  001066  6E04               	movwf	lcd_gotoxy@b^0,c
   953  001068  0E01               	movlw	1
   954  00106A  EC26  F00E         	call	_lcd_gotoxy
   955  00106E                     
   956                           ;Teclado_Matricial_4x4_Cerradura_Electronica.c: 85:     lcd_putc("    CERRADURA   ");
   957  00106E  0E01               	movlw	low STR_3
   958  001070  6E05               	movwf	lcd_putc@a^0,c
   959  001072  0E08               	movlw	high STR_3
   960  001074  6E06               	movwf	(lcd_putc@a+1)^0,c
   961  001076  EC77  F00D         	call	_lcd_putc	;wreg free
   962  00107A                     
   963                           ;Teclado_Matricial_4x4_Cerradura_Electronica.c: 86:     lcd_gotoxy(2,1);
   964  00107A  0E01               	movlw	1
   965  00107C  6E04               	movwf	lcd_gotoxy@b^0,c
   966  00107E  0E02               	movlw	2
   967  001080  EC26  F00E         	call	_lcd_gotoxy
   968  001084                     
   969                           ;Teclado_Matricial_4x4_Cerradura_Electronica.c: 87:     lcd_putc("   ELECTRONICA  ");
   970  001084  0E34               	movlw	low STR_4
   971  001086  6E05               	movwf	lcd_putc@a^0,c
   972  001088  0E08               	movlw	high STR_4
   973  00108A  6E06               	movwf	(lcd_putc@a+1)^0,c
   974  00108C  EC77  F00D         	call	_lcd_putc	;wreg free
   975  001090                     
   976                           ;Teclado_Matricial_4x4_Cerradura_Electronica.c: 88:     _delay((unsigned long)((2000)*(8
      +                          000000/4000.0)));
   977  001090  0E15               	movlw	21
   978  001092  0100               	movlb	0	; () banked
   979  001094  6F7E               	movwf	(??_main+1)& (0+255),b
   980  001096  0E4B               	movlw	75
   981  001098  6F7D               	movwf	??_main& (0+255),b
   982  00109A  0EBE               	movlw	190
   983  00109C                     u2807:
   984  00109C  2EE8               	decfsz	wreg,f,c
   985  00109E  D7FE               	bra	u2807
   986  0010A0  2F7D               	decfsz	??_main& (0+255),f,b
   987  0010A2  D7FC               	bra	u2807
   988  0010A4  2F7E               	decfsz	(??_main+1)& (0+255),f,b
   989  0010A6  D7FA               	bra	u2807
   990  0010A8  F000               	nop	
   991  0010AA                     l2672:
   992                           
   993                           ;Teclado_Matricial_4x4_Cerradura_Electronica.c: 89:     lcd_clear();
   994  0010AA  EC12  F010         	call	_lcd_clear	;wreg free
   995  0010AE                     
   996                           ;Teclado_Matricial_4x4_Cerradura_Electronica.c: 92:     {;Teclado_Matricial_4x4_Cerradur
      +                          a_Electronica.c: 93:         lcd_gotoxy(1,1);
   997  0010AE  0E01               	movlw	1
   998  0010B0  6E04               	movwf	lcd_gotoxy@b^0,c
   999  0010B2  0E01               	movlw	1
  1000  0010B4  EC26  F00E         	call	_lcd_gotoxy
  1001  0010B8                     
  1002                           ;Teclado_Matricial_4x4_Cerradura_Electronica.c: 94:         lcd_putc("INGRESE PASSWORD")
      +                          ;
  1003  0010B8  0E56               	movlw	low STR_5
  1004  0010BA  6E05               	movwf	lcd_putc@a^0,c
  1005  0010BC  0E08               	movlw	high STR_5
  1006  0010BE  6E06               	movwf	(lcd_putc@a+1)^0,c
  1007  0010C0  EC77  F00D         	call	_lcd_putc	;wreg free
  1008                           
  1009                           ;Teclado_Matricial_4x4_Cerradura_Electronica.c: 95:         while(Contador_Tecla<4)
  1010  0010C4  EF82  F008         	goto	l2690
  1011  0010C8                     l2678:
  1012                           
  1013                           ; BSR set to: 0
  1014                           ;Teclado_Matricial_4x4_Cerradura_Electronica.c: 96:         {;Teclado_Matricial_4x4_Cerr
      +                          adura_Electronica.c: 97:             K=Keypad_Get_Char();
  1015  0010C8  EC78  F004         	call	_Keypad_Get_Char	;wreg free
  1016  0010CC  0100               	movlb	0	; () banked
  1017  0010CE  6FC9               	movwf	_K& (0+255),b
  1018  0010D0                     
  1019                           ; BSR set to: 0
  1020                           ;Teclado_Matricial_4x4_Cerradura_Electronica.c: 98:             if(K!=0)
  1021  0010D0  51C9               	movf	_K& (0+255),w,b
  1022  0010D2  B4D8               	btfsc	status,2,c
  1023  0010D4  EF6E  F008         	goto	u2381
  1024  0010D8  EF70  F008         	goto	u2380
  1025  0010DC                     u2381:
  1026  0010DC  EF82  F008         	goto	l2690
  1027  0010E0                     u2380:
  1028  0010E0                     
  1029                           ; BSR set to: 0
  1030                           ;Teclado_Matricial_4x4_Cerradura_Electronica.c: 99:             {;Teclado_Matricial_4x4_
      +                          Cerradura_Electronica.c: 100:                 Password[Contador_Tecla]=K;
  1031  0010E0  0ECB               	movlw	low _Password
  1032  0010E2  25CA               	addwf	_Contador_Tecla& (0+255),w,b
  1033  0010E4  6ED9               	movwf	fsr2l,c
  1034  0010E6  6ADA               	clrf	fsr2h,c
  1035  0010E8  0E00               	movlw	high _Password
  1036  0010EA  22DA               	addwfc	fsr2h,f,c
  1037  0010EC  C0C9  FFDF         	movff	_K,indf2
  1038  0010F0                     
  1039                           ; BSR set to: 0
  1040                           ;Teclado_Matricial_4x4_Cerradura_Electronica.c: 101:                 lcd_gotoxy(2,1+Cont
      +                          ador_Tecla);
  1041  0010F0  29CA               	incf	_Contador_Tecla& (0+255),w,b
  1042  0010F2  6E04               	movwf	lcd_gotoxy@b^0,c
  1043  0010F4  0E02               	movlw	2
  1044  0010F6  EC26  F00E         	call	_lcd_gotoxy
  1045  0010FA                     
  1046                           ;Teclado_Matricial_4x4_Cerradura_Electronica.c: 102:                 lcd_write_char('*')
      +                          ;
  1047  0010FA  0E2A               	movlw	42
  1048  0010FC  EC72  F00F         	call	_lcd_write_char
  1049  001100                     
  1050                           ;Teclado_Matricial_4x4_Cerradura_Electronica.c: 103:                 Contador_Tecla++;
  1051  001100  0100               	movlb	0	; () banked
  1052  001102  2BCA               	incf	_Contador_Tecla& (0+255),f,b
  1053  001104                     l2690:
  1054                           
  1055                           ;Teclado_Matricial_4x4_Cerradura_Electronica.c: 95:         while(Contador_Tecla<4)
  1056  001104  0E03               	movlw	3
  1057  001106  0100               	movlb	0	; () banked
  1058  001108  65CA               	cpfsgt	_Contador_Tecla& (0+255),b
  1059  00110A  EF89  F008         	goto	u2391
  1060  00110E  EF8B  F008         	goto	u2390
  1061  001112                     u2391:
  1062  001112  EF64  F008         	goto	l2678
  1063  001116                     u2390:
  1064  001116                     
  1065                           ; BSR set to: 0
  1066                           ;Teclado_Matricial_4x4_Cerradura_Electronica.c: 106:         _delay((unsigned long)((200
      +                          )*(8000000/4000.0)));
  1067  001116  0E03               	movlw	3
  1068  001118  0100               	movlb	0	; () banked
  1069  00111A  6F7E               	movwf	(??_main+1)& (0+255),b
  1070  00111C  0E08               	movlw	8
  1071  00111E  6F7D               	movwf	??_main& (0+255),b
  1072  001120  0E77               	movlw	119
  1073  001122                     u2817:
  1074  001122  2EE8               	decfsz	wreg,f,c
  1075  001124  D7FE               	bra	u2817
  1076  001126  2F7D               	decfsz	??_main& (0+255),f,b
  1077  001128  D7FC               	bra	u2817
  1078  00112A  2F7E               	decfsz	(??_main+1)& (0+255),f,b
  1079  00112C  D7FA               	bra	u2817
  1080  00112E                     
  1081                           ;Teclado_Matricial_4x4_Cerradura_Electronica.c: 107:         lcd_clear();
  1082  00112E  EC12  F010         	call	_lcd_clear	;wreg free
  1083  001132                     
  1084                           ;Teclado_Matricial_4x4_Cerradura_Electronica.c: 109:         if(!strcmp(Password,clave))
  1085  001132  0ECB               	movlw	low _Password
  1086  001134  6E01               	movwf	strcmp@l^0,c
  1087  001136  0E00               	movlw	high _Password
  1088  001138  6E02               	movwf	(strcmp@l+1)^0,c
  1089  00113A  0EDC               	movlw	low _clave
  1090  00113C  6E03               	movwf	strcmp@r^0,c
  1091  00113E  0E00               	movlw	high _clave
  1092  001140  6E04               	movwf	(strcmp@r+1)^0,c
  1093  001142  ECF0  F00D         	call	_strcmp	;wreg free
  1094  001146  5001               	movf	?_strcmp^0,w,c
  1095  001148  1002               	iorwf	(?_strcmp+1)^0,w,c
  1096  00114A  A4D8               	btfss	status,2,c
  1097  00114C  EFAA  F008         	goto	u2401
  1098  001150  EFAC  F008         	goto	u2400
  1099  001154                     u2401:
  1100  001154  EFD7  F008         	goto	l2716
  1101  001158                     u2400:
  1102  001158                     
  1103                           ;Teclado_Matricial_4x4_Cerradura_Electronica.c: 111:         {;Teclado_Matricial_4x4_Cer
      +                          radura_Electronica.c: 112:             lcd_gotoxy(1,1);
  1104  001158  0E01               	movlw	1
  1105  00115A  6E04               	movwf	lcd_gotoxy@b^0,c
  1106  00115C  0E01               	movlw	1
  1107  00115E  EC26  F00E         	call	_lcd_gotoxy
  1108  001162                     
  1109                           ;Teclado_Matricial_4x4_Cerradura_Electronica.c: 113:             lcd_putc(" clave correc
      +                          ta ");
  1110  001162  0E45               	movlw	low STR_6
  1111  001164  6E05               	movwf	lcd_putc@a^0,c
  1112  001166  0E08               	movlw	high STR_6
  1113  001168  6E06               	movwf	(lcd_putc@a+1)^0,c
  1114  00116A  EC77  F00D         	call	_lcd_putc	;wreg free
  1115  00116E                     
  1116                           ;Teclado_Matricial_4x4_Cerradura_Electronica.c: 114:             lcd_gotoxy(2,1);
  1117  00116E  0E01               	movlw	1
  1118  001170  6E04               	movwf	lcd_gotoxy@b^0,c
  1119  001172  0E02               	movlw	2
  1120  001174  EC26  F00E         	call	_lcd_gotoxy
  1121                           
  1122                           ;Teclado_Matricial_4x4_Cerradura_Electronica.c: 115:             lcd_putc("   BIENVENIDO
      +                             ");
  1123  001178  0E23               	movlw	low STR_7
  1124  00117A  6E05               	movwf	lcd_putc@a^0,c
  1125  00117C  0E08               	movlw	high STR_7
  1126  00117E  6E06               	movwf	(lcd_putc@a+1)^0,c
  1127  001180  EC77  F00D         	call	_lcd_putc	;wreg free
  1128  001184                     
  1129                           ;Teclado_Matricial_4x4_Cerradura_Electronica.c: 116:             LATCbits.LATC0=1;
  1130  001184  808B               	bsf	139,0,c	;volatile
  1131  001186                     
  1132                           ;Teclado_Matricial_4x4_Cerradura_Electronica.c: 117:             LATCbits.LATC1=0;
  1133  001186  928B               	bcf	139,1,c	;volatile
  1134  001188                     
  1135                           ;Teclado_Matricial_4x4_Cerradura_Electronica.c: 118:             _delay((unsigned long)(
      +                          (Tiempo_Apertura)*(8000000/4000.0)));
  1136  001188  0E1F               	movlw	31
  1137  00118A  0100               	movlb	0	; () banked
  1138  00118C  6F7E               	movwf	(??_main+1)& (0+255),b
  1139  00118E  0E71               	movlw	113
  1140  001190  6F7D               	movwf	??_main& (0+255),b
  1141  001192  0E1E               	movlw	30
  1142  001194                     u2827:
  1143  001194  2EE8               	decfsz	wreg,f,c
  1144  001196  D7FE               	bra	u2827
  1145  001198  2F7D               	decfsz	??_main& (0+255),f,b
  1146  00119A  D7FC               	bra	u2827
  1147  00119C  2F7E               	decfsz	(??_main+1)& (0+255),f,b
  1148  00119E  D7FA               	bra	u2827
  1149  0011A0  F000               	nop	
  1150  0011A2                     
  1151                           ;Teclado_Matricial_4x4_Cerradura_Electronica.c: 119:             LATCbits.LATC0=0;
  1152  0011A2  908B               	bcf	139,0,c	;volatile
  1153  0011A4                     
  1154                           ;Teclado_Matricial_4x4_Cerradura_Electronica.c: 120:             LATCbits.LATC1=1;
  1155  0011A4  828B               	bsf	139,1,c	;volatile
  1156  0011A6                     
  1157                           ;Teclado_Matricial_4x4_Cerradura_Electronica.c: 121:             dht11();
  1158  0011A6  EC58  F009         	call	_dht11	;wreg free
  1159                           
  1160                           ;Teclado_Matricial_4x4_Cerradura_Electronica.c: 124:         }
  1161  0011AA  EF50  F009         	goto	l2756
  1162  0011AE                     l2716:
  1163                           
  1164                           ;Teclado_Matricial_4x4_Cerradura_Electronica.c: 126:         {;Teclado_Matricial_4x4_Cer
      +                          radura_Electronica.c: 127:             intentos+=1;
  1165  0011AE  0100               	movlb	0	; () banked
  1166  0011B0  4B9D               	infsnz	main@intentos& (0+255),f,b
  1167  0011B2  2B9E               	incf	(main@intentos+1)& (0+255),f,b
  1168  0011B4                     
  1169                           ; BSR set to: 0
  1170                           ;Teclado_Matricial_4x4_Cerradura_Electronica.c: 128:             lcd_gotoxy(1,1);
  1171  0011B4  0E01               	movlw	1
  1172  0011B6  6E04               	movwf	lcd_gotoxy@b^0,c
  1173  0011B8  0E01               	movlw	1
  1174  0011BA  EC26  F00E         	call	_lcd_gotoxy
  1175  0011BE                     
  1176                           ;Teclado_Matricial_4x4_Cerradura_Electronica.c: 129:             lcd_putc("     CLAVE   
      +                            ");
  1177  0011BE  0E67               	movlw	low STR_8
  1178  0011C0  6E05               	movwf	lcd_putc@a^0,c
  1179  0011C2  0E08               	movlw	high STR_8
  1180  0011C4  6E06               	movwf	(lcd_putc@a+1)^0,c
  1181  0011C6  EC77  F00D         	call	_lcd_putc	;wreg free
  1182  0011CA                     
  1183                           ;Teclado_Matricial_4x4_Cerradura_Electronica.c: 130:             lcd_gotoxy(2,1);
  1184  0011CA  0E01               	movlw	1
  1185  0011CC  6E04               	movwf	lcd_gotoxy@b^0,c
  1186  0011CE  0E02               	movlw	2
  1187  0011D0  EC26  F00E         	call	_lcd_gotoxy
  1188  0011D4                     
  1189                           ;Teclado_Matricial_4x4_Cerradura_Electronica.c: 131:             lcd_putc("   INCORRECTA
      +                             ");
  1190  0011D4  0E12               	movlw	low STR_9
  1191  0011D6  6E05               	movwf	lcd_putc@a^0,c
  1192  0011D8  0E08               	movlw	high STR_9
  1193  0011DA  6E06               	movwf	(lcd_putc@a+1)^0,c
  1194  0011DC  EC77  F00D         	call	_lcd_putc	;wreg free
  1195  0011E0                     
  1196                           ;Teclado_Matricial_4x4_Cerradura_Electronica.c: 132:             LATCbits.LATC0=0;
  1197  0011E0  908B               	bcf	139,0,c	;volatile
  1198  0011E2                     
  1199                           ;Teclado_Matricial_4x4_Cerradura_Electronica.c: 133:             _delay((unsigned long)(
      +                          (Tiempo_Incorrecto)*(8000000/4000.0)));
  1200  0011E2  0E15               	movlw	21
  1201  0011E4  0100               	movlb	0	; () banked
  1202  0011E6  6F7E               	movwf	(??_main+1)& (0+255),b
  1203  0011E8  0E4B               	movlw	75
  1204  0011EA  6F7D               	movwf	??_main& (0+255),b
  1205  0011EC  0EBE               	movlw	190
  1206  0011EE                     u2837:
  1207  0011EE  2EE8               	decfsz	wreg,f,c
  1208  0011F0  D7FE               	bra	u2837
  1209  0011F2  2F7D               	decfsz	??_main& (0+255),f,b
  1210  0011F4  D7FC               	bra	u2837
  1211  0011F6  2F7E               	decfsz	(??_main+1)& (0+255),f,b
  1212  0011F8  D7FA               	bra	u2837
  1213  0011FA  F000               	nop	
  1214                           
  1215                           ;Teclado_Matricial_4x4_Cerradura_Electronica.c: 136:             if(intentos==3)
  1216  0011FC  0E03               	movlw	3
  1217  0011FE  0100               	movlb	0	; () banked
  1218  001200  199D               	xorwf	main@intentos& (0+255),w,b
  1219  001202  119E               	iorwf	(main@intentos+1)& (0+255),w,b
  1220  001204  A4D8               	btfss	status,2,c
  1221  001206  EF07  F009         	goto	u2411
  1222  00120A  EF09  F009         	goto	u2410
  1223  00120E                     u2411:
  1224  00120E  EF50  F009         	goto	l2756
  1225  001212                     u2410:
  1226  001212                     
  1227                           ; BSR set to: 0
  1228                           ;Teclado_Matricial_4x4_Cerradura_Electronica.c: 137:             {;Teclado_Matricial_4x4
      +                          _Cerradura_Electronica.c: 138:                 lcd_clear();
  1229  001212  EC12  F010         	call	_lcd_clear	;wreg free
  1230  001216                     
  1231                           ;Teclado_Matricial_4x4_Cerradura_Electronica.c: 139:                 for(int j=tiempo_bl
      +                          oqueo;j>=0;j--){
  1232  001216  0E00               	movlw	0
  1233  001218  0100               	movlb	0	; () banked
  1234  00121A  6FA0               	movwf	(main@j+1)& (0+255),b
  1235  00121C  0E14               	movlw	20
  1236  00121E  6F9F               	movwf	main@j& (0+255),b
  1237  001220                     l2738:
  1238                           
  1239                           ; BSR set to: 0
  1240                           ;Teclado_Matricial_4x4_Cerradura_Electronica.c: 140:                 lcd_gotoxy(1,1);
  1241  001220  0E01               	movlw	1
  1242  001222  6E04               	movwf	lcd_gotoxy@b^0,c
  1243  001224  0E01               	movlw	1
  1244  001226  EC26  F00E         	call	_lcd_gotoxy
  1245  00122A                     
  1246                           ;Teclado_Matricial_4x4_Cerradura_Electronica.c: 141:                 lcd_putc("  MAX INT
      +                          ENTOS");
  1247  00122A  0EA6               	movlw	low STR_10
  1248  00122C  6E05               	movwf	lcd_putc@a^0,c
  1249  00122E  0E08               	movlw	high STR_10
  1250  001230  6E06               	movwf	(lcd_putc@a+1)^0,c
  1251  001232  EC77  F00D         	call	_lcd_putc	;wreg free
  1252  001236                     
  1253                           ;Teclado_Matricial_4x4_Cerradura_Electronica.c: 143:                 lcd_gotoxy(2,1);
  1254  001236  0E01               	movlw	1
  1255  001238  6E04               	movwf	lcd_gotoxy@b^0,c
  1256  00123A  0E02               	movlw	2
  1257  00123C  EC26  F00E         	call	_lcd_gotoxy
  1258  001240                     
  1259                           ;Teclado_Matricial_4x4_Cerradura_Electronica.c: 144:                 sprintf(tiempo,"  B
      +                          LOQUEADO %ds",j);
  1260  001240  0E7F               	movlw	low main@tiempo
  1261  001242  6E58               	movwf	sprintf@s^0,c
  1262  001244  0E00               	movlw	high main@tiempo
  1263  001246  6E59               	movwf	(sprintf@s+1)^0,c
  1264  001248  0E87               	movlw	low STR_11
  1265  00124A  6E5A               	movwf	sprintf@fmt^0,c
  1266  00124C  0E08               	movlw	high STR_11
  1267  00124E  6E5B               	movwf	(sprintf@fmt+1)^0,c
  1268  001250  C09F  F05C         	movff	main@j,?_sprintf+4
  1269  001254  C0A0  F05D         	movff	main@j+1,?_sprintf+5
  1270  001258  ECE6  F00E         	call	_sprintf	;wreg free
  1271  00125C                     
  1272                           ;Teclado_Matricial_4x4_Cerradura_Electronica.c: 145:                 lcd_putc(tiempo);
  1273  00125C  0E7F               	movlw	low main@tiempo
  1274  00125E  6E05               	movwf	lcd_putc@a^0,c
  1275  001260  0E00               	movlw	high main@tiempo
  1276  001262  6E06               	movwf	(lcd_putc@a+1)^0,c
  1277  001264  EC77  F00D         	call	_lcd_putc	;wreg free
  1278  001268                     
  1279                           ;Teclado_Matricial_4x4_Cerradura_Electronica.c: 146:                 _delay((unsigned lo
      +                          ng)((1000)*(8000000/4000.0)));
  1280  001268  0E0B               	movlw	11
  1281  00126A  0100               	movlb	0	; () banked
  1282  00126C  6F7E               	movwf	(??_main+1)& (0+255),b
  1283  00126E  0E26               	movlw	38
  1284  001270  6F7D               	movwf	??_main& (0+255),b
  1285  001272  0E5D               	movlw	93
  1286  001274                     u2847:
  1287  001274  2EE8               	decfsz	wreg,f,c
  1288  001276  D7FE               	bra	u2847
  1289  001278  2F7D               	decfsz	??_main& (0+255),f,b
  1290  00127A  D7FC               	bra	u2847
  1291  00127C  2F7E               	decfsz	(??_main+1)& (0+255),f,b
  1292  00127E  D7FA               	bra	u2847
  1293  001280  D000               	nop2	
  1294  001282                     
  1295                           ;Teclado_Matricial_4x4_Cerradura_Electronica.c: 147:                 lcd_clear();
  1296  001282  EC12  F010         	call	_lcd_clear	;wreg free
  1297  001286                     
  1298                           ;Teclado_Matricial_4x4_Cerradura_Electronica.c: 148:                 }
  1299  001286  0100               	movlb	0	; () banked
  1300  001288  079F               	decf	main@j& (0+255),f,b
  1301  00128A  A0D8               	btfss	status,0,c
  1302  00128C  07A0               	decf	(main@j+1)& (0+255),f,b
  1303  00128E                     
  1304                           ; BSR set to: 0
  1305  00128E  BFA0               	btfsc	(main@j+1)& (0+255),7,b
  1306  001290  EF4E  F009         	goto	u2420
  1307  001294  EF4C  F009         	goto	u2421
  1308  001298                     u2421:
  1309  001298  EF10  F009         	goto	l2738
  1310  00129C                     u2420:
  1311  00129C  EF56  F009         	goto	l132
  1312  0012A0                     l2756:
  1313                           
  1314                           ;Teclado_Matricial_4x4_Cerradura_Electronica.c: 152:         Contador_Tecla=0;
  1315  0012A0  0E00               	movlw	0
  1316  0012A2  0100               	movlb	0	; () banked
  1317  0012A4  6FCA               	movwf	_Contador_Tecla& (0+255),b
  1318  0012A6                     
  1319                           ; BSR set to: 0
  1320                           ;Teclado_Matricial_4x4_Cerradura_Electronica.c: 155:         LATCbits.LATC7=0;
  1321  0012A6  9E8B               	bcf	139,7,c	;volatile
  1322  0012A8  EF55  F008         	goto	l2672
  1323  0012AC                     l132:
  1324                           
  1325                           ; BSR set to: 0
  1326  0012AC  EF00  F000         	goto	start
  1327  0012B0                     __end_of_main:
  1328                           	callstack 0
  1329                           
  1330 ;; *************** function _strcmp *****************
  1331 ;; Defined at:
  1332 ;;		line 3 in file "C:\Program Files\Microchip\xc8\v2.36\pic\sources\c99\common\strcmp.c"
  1333 ;; Parameters:    Size  Location     Type
  1334 ;;  l               2    0[COMRAM] PTR const unsigned char 
  1335 ;;		 -> Password(5), 
  1336 ;;  r               2    2[COMRAM] PTR const unsigned char 
  1337 ;;		 -> clave(5), 
  1338 ;; Auto vars:     Size  Location     Type
  1339 ;;		None
  1340 ;; Return value:  Size  Location     Type
  1341 ;;                  2    0[COMRAM] int 
  1342 ;; Registers used:
  1343 ;;		wreg, fsr1l, fsr1h, fsr2l, fsr2h, status,2, status,0
  1344 ;; Tracked objects:
  1345 ;;		On entry : 0/0
  1346 ;;		On exit  : 0/0
  1347 ;;		Unchanged: 0/0
  1348 ;; Data sizes:     COMRAM   BANK0   BANK1   BANK2   BANK3   BANK4   BANK5   BANK6   BANK7
  1349 ;;      Params:         4       0       0       0       0       0       0       0       0
  1350 ;;      Locals:         0       0       0       0       0       0       0       0       0
  1351 ;;      Temps:          2       0       0       0       0       0       0       0       0
  1352 ;;      Totals:         6       0       0       0       0       0       0       0       0
  1353 ;;Total ram usage:        6 bytes
  1354 ;; Hardware stack levels used: 1
  1355 ;; This function calls:
  1356 ;;		Nothing
  1357 ;; This function is called by:
  1358 ;;		_main
  1359 ;; This function uses a non-reentrant model
  1360 ;;
  1361                           
  1362                           	psect	text1
  1363  001BE0                     __ptext1:
  1364                           	callstack 0
  1365  001BE0                     _strcmp:
  1366                           	callstack 30
  1367  001BE0  EFF6  F00D         	goto	l2538
  1368  001BE4                     l2536:
  1369  001BE4  4A01               	infsnz	strcmp@l^0,f,c
  1370  001BE6  2A02               	incf	(strcmp@l+1)^0,f,c
  1371  001BE8  4A03               	infsnz	strcmp@r^0,f,c
  1372  001BEA  2A04               	incf	(strcmp@r+1)^0,f,c
  1373  001BEC                     l2538:
  1374  001BEC  C003  FFD9         	movff	strcmp@r,fsr2l
  1375  001BF0  C004  FFDA         	movff	strcmp@r+1,fsr2h
  1376  001BF4  C001  FFE1         	movff	strcmp@l,fsr1l
  1377  001BF8  C002  FFE2         	movff	strcmp@l+1,fsr1h
  1378  001BFC  50DE               	movf	postinc2,w,c
  1379  001BFE  18E6               	xorwf	postinc1,w,c
  1380  001C00  A4D8               	btfss	status,2,c
  1381  001C02  EF05  F00E         	goto	u2341
  1382  001C06  EF07  F00E         	goto	u2340
  1383  001C0A                     u2341:
  1384  001C0A  EF13  F00E         	goto	l2542
  1385  001C0E                     u2340:
  1386  001C0E  C001  FFD9         	movff	strcmp@l,fsr2l
  1387  001C12  C002  FFDA         	movff	strcmp@l+1,fsr2h
  1388  001C16  50DF               	movf	indf2,w,c
  1389  001C18  A4D8               	btfss	status,2,c
  1390  001C1A  EF11  F00E         	goto	u2351
  1391  001C1E  EF13  F00E         	goto	u2350
  1392  001C22                     u2351:
  1393  001C22  EFF2  F00D         	goto	l2536
  1394  001C26                     u2350:
  1395  001C26                     l2542:
  1396  001C26  C001  FFD9         	movff	strcmp@l,fsr2l
  1397  001C2A  C002  FFDA         	movff	strcmp@l+1,fsr2h
  1398  001C2E  50DF               	movf	indf2,w,c
  1399  001C30  6E05               	movwf	??_strcmp^0,c
  1400  001C32  C003  FFD9         	movff	strcmp@r,fsr2l
  1401  001C36  C004  FFDA         	movff	strcmp@r+1,fsr2h
  1402  001C3A  50DF               	movf	indf2,w,c
  1403  001C3C  6E06               	movwf	(??_strcmp+1)^0,c
  1404  001C3E  5006               	movf	(??_strcmp+1)^0,w,c
  1405  001C40  5C05               	subwf	??_strcmp^0,w,c
  1406  001C42  6E01               	movwf	?_strcmp^0,c
  1407  001C44  6A02               	clrf	(?_strcmp+1)^0,c
  1408  001C46  A0D8               	btfss	status,0,c
  1409  001C48  0602               	decf	(?_strcmp+1)^0,f,c
  1410  001C4A  0012               	return		;funcret
  1411  001C4C                     __end_of_strcmp:
  1412                           	callstack 0
  1413                           
  1414 ;; *************** function _dht11 *****************
  1415 ;; Defined at:
  1416 ;;		line 172 in file "Teclado_Matricial_4x4_Cerradura_Electronica.c"
  1417 ;; Parameters:    Size  Location     Type
  1418 ;;		None
  1419 ;; Auto vars:     Size  Location     Type
  1420 ;;  value          10   15[BANK0 ] unsigned char [10]
  1421 ;;  ldr_ouput       2   25[BANK0 ] int 
  1422 ;;  T_Integral      1   28[BANK0 ] unsigned char 
  1423 ;;  RH_Integral     1   27[BANK0 ] unsigned char 
  1424 ;;  Checksum        1    0        unsigned char 
  1425 ;;  T_Decimal       1    0        unsigned char 
  1426 ;;  RH_Decimal      1    0        unsigned char 
  1427 ;; Return value:  Size  Location     Type
  1428 ;;                  1    wreg      void 
  1429 ;; Registers used:
  1430 ;;		wreg, fsr1l, fsr1h, fsr2l, fsr2h, status,2, status,0, tblptrl, tblptrh, tblptru, cstack
  1431 ;; Tracked objects:
  1432 ;;		On entry : 0/0
  1433 ;;		On exit  : 0/0
  1434 ;;		Unchanged: 0/0
  1435 ;; Data sizes:     COMRAM   BANK0   BANK1   BANK2   BANK3   BANK4   BANK5   BANK6   BANK7
  1436 ;;      Params:         0       0       0       0       0       0       0       0       0
  1437 ;;      Locals:         0      14       0       0       0       0       0       0       0
  1438 ;;      Temps:          0       2       0       0       0       0       0       0       0
  1439 ;;      Totals:         0      16       0       0       0       0       0       0       0
  1440 ;;Total ram usage:       16 bytes
  1441 ;; Hardware stack levels used: 1
  1442 ;; Hardware stack levels required when called: 8
  1443 ;; This function calls:
  1444 ;;		_Configuracion_Registros
  1445 ;;		_DHT11_CheckResponse
  1446 ;;		_DHT11_ReadData
  1447 ;;		_DHT11_Start
  1448 ;;		_LDR_funcion
  1449 ;;		_encender_lampara
  1450 ;;		_lcd_clear
  1451 ;;		_lcd_gotoxy
  1452 ;;		_lcd_init
  1453 ;;		_lcd_putc
  1454 ;;		_sprintf
  1455 ;; This function is called by:
  1456 ;;		_main
  1457 ;; This function uses a non-reentrant model
  1458 ;;
  1459                           
  1460                           	psect	text2
  1461  0012B0                     __ptext2:
  1462                           	callstack 0
  1463  0012B0                     _dht11:
  1464                           	callstack 22
  1465  0012B0                     
  1466                           ;Teclado_Matricial_4x4_Cerradura_Electronica.c: 174:     Configuracion_Registros();
  1467  0012B0  EC19  F010         	call	_Configuracion_Registros	;wreg free
  1468  0012B4                     
  1469                           ;Teclado_Matricial_4x4_Cerradura_Electronica.c: 175:     lcd_init();
  1470  0012B4  ECB6  F00D         	call	_lcd_init	;wreg free
  1471  0012B8                     l2552:
  1472                           
  1473                           ;Teclado_Matricial_4x4_Cerradura_Electronica.c: 180:     {;Teclado_Matricial_4x4_Cerradu
      +                          ra_Electronica.c: 181:     ldr_ouput=LDR_funcion();
  1474  0012B8  ECBF  F00F         	call	_LDR_funcion	;wreg free
  1475  0012BC  C001  F079         	movff	?_LDR_funcion,dht11@ldr_ouput
  1476  0012C0  C002  F07A         	movff	?_LDR_funcion+1,dht11@ldr_ouput+1
  1477  0012C4                     
  1478                           ;Teclado_Matricial_4x4_Cerradura_Electronica.c: 182:     DHT11_Start();
  1479  0012C4  ECE2  F00F         	call	_DHT11_Start	;wreg free
  1480  0012C8                     
  1481                           ;Teclado_Matricial_4x4_Cerradura_Electronica.c: 183:     DHT11_CheckResponse();
  1482  0012C8  ECA9  F00F         	call	_DHT11_CheckResponse	;wreg free
  1483  0012CC                     
  1484                           ;Teclado_Matricial_4x4_Cerradura_Electronica.c: 185:     RH_Integral = DHT11_ReadData();
  1485  0012CC  ECB8  F00E         	call	_DHT11_ReadData	;wreg free
  1486  0012D0  0100               	movlb	0	; () banked
  1487  0012D2  6F7B               	movwf	dht11@RH_Integral& (0+255),b
  1488  0012D4                     
  1489                           ; BSR set to: 0
  1490  0012D4  ECB8  F00E         	call	_DHT11_ReadData	;wreg free
  1491  0012D8                     
  1492                           ;Teclado_Matricial_4x4_Cerradura_Electronica.c: 187:     T_Integral = DHT11_ReadData();
  1493  0012D8  ECB8  F00E         	call	_DHT11_ReadData	;wreg free
  1494  0012DC  0100               	movlb	0	; () banked
  1495  0012DE  6F7C               	movwf	dht11@T_Integral& (0+255),b
  1496  0012E0                     
  1497                           ; BSR set to: 0
  1498  0012E0  ECB8  F00E         	call	_DHT11_ReadData	;wreg free
  1499  0012E4  ECB8  F00E         	call	_DHT11_ReadData	;wreg free
  1500  0012E8                     
  1501                           ;Teclado_Matricial_4x4_Cerradura_Electronica.c: 191:     encender_lampara(ldr_ouput);
  1502  0012E8  C079  F001         	movff	dht11@ldr_ouput,encender_lampara@ldr_output
  1503  0012EC  C07A  F002         	movff	dht11@ldr_ouput+1,encender_lampara@ldr_output+1
  1504  0012F0  ECF2  F00F         	call	_encender_lampara	;wreg free
  1505  0012F4                     
  1506                           ;Teclado_Matricial_4x4_Cerradura_Electronica.c: 193:     if(T_Integral>=22)
  1507  0012F4  0E15               	movlw	21
  1508  0012F6  0100               	movlb	0	; () banked
  1509  0012F8  657C               	cpfsgt	dht11@T_Integral& (0+255),b
  1510  0012FA  EF81  F009         	goto	u2361
  1511  0012FE  EF83  F009         	goto	u2360
  1512  001302                     u2361:
  1513  001302  EFD5  F009         	goto	l2594
  1514  001306                     u2360:
  1515  001306                     
  1516                           ; BSR set to: 0
  1517                           ;Teclado_Matricial_4x4_Cerradura_Electronica.c: 194:     {;Teclado_Matricial_4x4_Cerradu
      +                          ra_Electronica.c: 195:         LATCbits.LATC2=1;
  1518  001306  848B               	bsf	139,2,c	;volatile
  1519                           
  1520                           ;Teclado_Matricial_4x4_Cerradura_Electronica.c: 196:         LATCbits.LATC7=1;
  1521  001308  8E8B               	bsf	139,7,c	;volatile
  1522  00130A                     
  1523                           ; BSR set to: 0
  1524                           ;Teclado_Matricial_4x4_Cerradura_Electronica.c: 197:           lcd_clear();
  1525  00130A  EC12  F010         	call	_lcd_clear	;wreg free
  1526  00130E                     
  1527                           ;Teclado_Matricial_4x4_Cerradura_Electronica.c: 198:         lcd_gotoxy(1,1);
  1528  00130E  0E01               	movlw	1
  1529  001310  6E04               	movwf	lcd_gotoxy@b^0,c
  1530  001312  0E01               	movlw	1
  1531  001314  EC26  F00E         	call	_lcd_gotoxy
  1532  001318                     
  1533                           ;Teclado_Matricial_4x4_Cerradura_Electronica.c: 199:         lcd_putc("   Temp baja");
  1534  001318  0EB5               	movlw	low STR_12
  1535  00131A  6E05               	movwf	lcd_putc@a^0,c
  1536  00131C  0E08               	movlw	high STR_12
  1537  00131E  6E06               	movwf	(lcd_putc@a+1)^0,c
  1538  001320  EC77  F00D         	call	_lcd_putc	;wreg free
  1539  001324                     
  1540                           ;Teclado_Matricial_4x4_Cerradura_Electronica.c: 200:         lcd_gotoxy(2,1);
  1541  001324  0E01               	movlw	1
  1542  001326  6E04               	movwf	lcd_gotoxy@b^0,c
  1543  001328  0E02               	movlw	2
  1544  00132A  EC26  F00E         	call	_lcd_gotoxy
  1545  00132E                     
  1546                           ;Teclado_Matricial_4x4_Cerradura_Electronica.c: 201:         sprintf(value,"Temp:%d",T_I
      +                          ntegral);
  1547  00132E  0E6F               	movlw	low dht11@value
  1548  001330  6E58               	movwf	sprintf@s^0,c
  1549  001332  0E00               	movlw	high dht11@value
  1550  001334  6E59               	movwf	(sprintf@s+1)^0,c
  1551  001336  0EE4               	movlw	low STR_13
  1552  001338  6E5A               	movwf	sprintf@fmt^0,c
  1553  00133A  0E08               	movlw	high STR_13
  1554  00133C  6E5B               	movwf	(sprintf@fmt+1)^0,c
  1555  00133E  C07C  F05C         	movff	dht11@T_Integral,?_sprintf+4
  1556  001342  6A5D               	clrf	(?_sprintf+5)^0,c
  1557  001344  ECE6  F00E         	call	_sprintf	;wreg free
  1558  001348                     
  1559                           ;Teclado_Matricial_4x4_Cerradura_Electronica.c: 202:         lcd_putc(value);
  1560  001348  0E6F               	movlw	low dht11@value
  1561  00134A  6E05               	movwf	lcd_putc@a^0,c
  1562  00134C  0E00               	movlw	high dht11@value
  1563  00134E  6E06               	movwf	(lcd_putc@a+1)^0,c
  1564  001350  EC77  F00D         	call	_lcd_putc	;wreg free
  1565  001354                     
  1566                           ;Teclado_Matricial_4x4_Cerradura_Electronica.c: 203:         lcd_gotoxy(2,8);
  1567  001354  0E08               	movlw	8
  1568  001356  6E04               	movwf	lcd_gotoxy@b^0,c
  1569  001358  0E02               	movlw	2
  1570  00135A  EC26  F00E         	call	_lcd_gotoxy
  1571  00135E                     
  1572                           ;Teclado_Matricial_4x4_Cerradura_Electronica.c: 204:         sprintf(value,"  Hum:%d",RH
      +                          _Integral,"%");
  1573  00135E  0E6F               	movlw	low dht11@value
  1574  001360  6E58               	movwf	sprintf@s^0,c
  1575  001362  0E00               	movlw	high dht11@value
  1576  001364  6E59               	movwf	(sprintf@s+1)^0,c
  1577  001366  0EDB               	movlw	low STR_14
  1578  001368  6E5A               	movwf	sprintf@fmt^0,c
  1579  00136A  0E08               	movlw	high STR_14
  1580  00136C  6E5B               	movwf	(sprintf@fmt+1)^0,c
  1581  00136E  C07B  F05C         	movff	dht11@RH_Integral,?_sprintf+4
  1582  001372  6A5D               	clrf	(?_sprintf+5)^0,c
  1583  001374  0EEC               	movlw	low STR_15
  1584  001376  6E5E               	movwf	(?_sprintf+6)^0,c
  1585  001378  0E08               	movlw	high STR_15
  1586  00137A  6E5F               	movwf	(?_sprintf+7)^0,c
  1587  00137C  ECE6  F00E         	call	_sprintf	;wreg free
  1588  001380                     l2590:
  1589                           
  1590                           ;Teclado_Matricial_4x4_Cerradura_Electronica.c: 205:         lcd_putc(value);
  1591  001380  0E6F               	movlw	low dht11@value
  1592  001382  6E05               	movwf	lcd_putc@a^0,c
  1593  001384  0E00               	movlw	high dht11@value
  1594  001386  6E06               	movwf	(lcd_putc@a+1)^0,c
  1595  001388  EC77  F00D         	call	_lcd_putc	;wreg free
  1596  00138C                     
  1597                           ;Teclado_Matricial_4x4_Cerradura_Electronica.c: 206:         _delay((unsigned long)((300
      +                          0)*(8000000/4000.0)));
  1598  00138C  0E1F               	movlw	31
  1599  00138E  0100               	movlb	0	; () banked
  1600  001390  6F6E               	movwf	(??_dht11+1)& (0+255),b
  1601  001392  0E71               	movlw	113
  1602  001394  6F6D               	movwf	??_dht11& (0+255),b
  1603  001396  0E1E               	movlw	30
  1604  001398                     u2857:
  1605  001398  2EE8               	decfsz	wreg,f,c
  1606  00139A  D7FE               	bra	u2857
  1607  00139C  2F6D               	decfsz	??_dht11& (0+255),f,b
  1608  00139E  D7FC               	bra	u2857
  1609  0013A0  2F6E               	decfsz	(??_dht11+1)& (0+255),f,b
  1610  0013A2  D7FA               	bra	u2857
  1611  0013A4  F000               	nop	
  1612                           
  1613                           ;Teclado_Matricial_4x4_Cerradura_Electronica.c: 207:     }
  1614  0013A6  EF5C  F009         	goto	l2552
  1615  0013AA                     l2594:
  1616                           
  1617                           ; BSR set to: 0
  1618  0013AA  0E15               	movlw	21
  1619  0013AC  617C               	cpfslt	dht11@T_Integral& (0+255),b
  1620  0013AE  EFDB  F009         	goto	u2371
  1621  0013B2  EFDD  F009         	goto	u2370
  1622  0013B6                     u2371:
  1623  0013B6  EF1C  F00A         	goto	l141
  1624  0013BA                     u2370:
  1625  0013BA                     
  1626                           ; BSR set to: 0
  1627                           ;Teclado_Matricial_4x4_Cerradura_Electronica.c: 210:     {;Teclado_Matricial_4x4_Cerradu
      +                          ra_Electronica.c: 211:         LATCbits.LATC7=0;
  1628  0013BA  9E8B               	bcf	139,7,c	;volatile
  1629                           
  1630                           ;Teclado_Matricial_4x4_Cerradura_Electronica.c: 212:         LATCbits.LATC2=1;
  1631  0013BC  848B               	bsf	139,2,c	;volatile
  1632  0013BE                     
  1633                           ; BSR set to: 0
  1634                           ;Teclado_Matricial_4x4_Cerradura_Electronica.c: 213:         lcd_clear();
  1635  0013BE  EC12  F010         	call	_lcd_clear	;wreg free
  1636  0013C2                     
  1637                           ;Teclado_Matricial_4x4_Cerradura_Electronica.c: 214:         lcd_gotoxy(1,1);
  1638  0013C2  0E01               	movlw	1
  1639  0013C4  6E04               	movwf	lcd_gotoxy@b^0,c
  1640  0013C6  0E01               	movlw	1
  1641  0013C8  EC26  F00E         	call	_lcd_gotoxy
  1642  0013CC                     
  1643                           ;Teclado_Matricial_4x4_Cerradura_Electronica.c: 215:         lcd_putc("   Temp alta");
  1644  0013CC  0EC2               	movlw	low STR_16
  1645  0013CE  6E05               	movwf	lcd_putc@a^0,c
  1646  0013D0  0E08               	movlw	high STR_16
  1647  0013D2  6E06               	movwf	(lcd_putc@a+1)^0,c
  1648  0013D4  EC77  F00D         	call	_lcd_putc	;wreg free
  1649  0013D8                     
  1650                           ;Teclado_Matricial_4x4_Cerradura_Electronica.c: 216:         lcd_gotoxy(2,1);
  1651  0013D8  0E01               	movlw	1
  1652  0013DA  6E04               	movwf	lcd_gotoxy@b^0,c
  1653  0013DC  0E02               	movlw	2
  1654  0013DE  EC26  F00E         	call	_lcd_gotoxy
  1655  0013E2                     
  1656                           ;Teclado_Matricial_4x4_Cerradura_Electronica.c: 217:         sprintf(value,"Temp:%d",T_I
      +                          ntegral);
  1657  0013E2  0E6F               	movlw	low dht11@value
  1658  0013E4  6E58               	movwf	sprintf@s^0,c
  1659  0013E6  0E00               	movlw	high dht11@value
  1660  0013E8  6E59               	movwf	(sprintf@s+1)^0,c
  1661  0013EA  0EE4               	movlw	low STR_13
  1662  0013EC  6E5A               	movwf	sprintf@fmt^0,c
  1663  0013EE  0E08               	movlw	high STR_13
  1664  0013F0  6E5B               	movwf	(sprintf@fmt+1)^0,c
  1665  0013F2  C07C  F05C         	movff	dht11@T_Integral,?_sprintf+4
  1666  0013F6  6A5D               	clrf	(?_sprintf+5)^0,c
  1667  0013F8  ECE6  F00E         	call	_sprintf	;wreg free
  1668  0013FC                     
  1669                           ;Teclado_Matricial_4x4_Cerradura_Electronica.c: 218:         lcd_putc(value);
  1670  0013FC  0E6F               	movlw	low dht11@value
  1671  0013FE  6E05               	movwf	lcd_putc@a^0,c
  1672  001400  0E00               	movlw	high dht11@value
  1673  001402  6E06               	movwf	(lcd_putc@a+1)^0,c
  1674  001404  EC77  F00D         	call	_lcd_putc	;wreg free
  1675  001408                     
  1676                           ;Teclado_Matricial_4x4_Cerradura_Electronica.c: 219:         lcd_gotoxy(2,8);
  1677  001408  0E08               	movlw	8
  1678  00140A  6E04               	movwf	lcd_gotoxy@b^0,c
  1679  00140C  0E02               	movlw	2
  1680  00140E  EC26  F00E         	call	_lcd_gotoxy
  1681  001412                     
  1682                           ;Teclado_Matricial_4x4_Cerradura_Electronica.c: 220:         sprintf(value,"  Hum:%d",RH
      +                          _Integral,"%");
  1683  001412  0E6F               	movlw	low dht11@value
  1684  001414  6E58               	movwf	sprintf@s^0,c
  1685  001416  0E00               	movlw	high dht11@value
  1686  001418  6E59               	movwf	(sprintf@s+1)^0,c
  1687  00141A  0EDB               	movlw	low STR_14
  1688  00141C  6E5A               	movwf	sprintf@fmt^0,c
  1689  00141E  0E08               	movlw	high STR_14
  1690  001420  6E5B               	movwf	(sprintf@fmt+1)^0,c
  1691  001422  C07B  F05C         	movff	dht11@RH_Integral,?_sprintf+4
  1692  001426  6A5D               	clrf	(?_sprintf+5)^0,c
  1693  001428  0EEC               	movlw	low STR_15
  1694  00142A  6E5E               	movwf	(?_sprintf+6)^0,c
  1695  00142C  0E08               	movlw	high STR_15
  1696  00142E  6E5F               	movwf	(?_sprintf+7)^0,c
  1697  001430  ECE6  F00E         	call	_sprintf	;wreg free
  1698  001434  EFC0  F009         	goto	l2590
  1699  001438                     l141:
  1700                           
  1701                           ; BSR set to: 0
  1702                           ;Teclado_Matricial_4x4_Cerradura_Electronica.c: 225:     {;Teclado_Matricial_4x4_Cerradu
      +                          ra_Electronica.c: 226:         LATCbits.LATC7=0;
  1703  001438  9E8B               	bcf	139,7,c	;volatile
  1704                           
  1705                           ;Teclado_Matricial_4x4_Cerradura_Electronica.c: 227:         LATCbits.LATC2=0;
  1706  00143A  948B               	bcf	139,2,c	;volatile
  1707  00143C                     
  1708                           ; BSR set to: 0
  1709                           ;Teclado_Matricial_4x4_Cerradura_Electronica.c: 228:         lcd_clear();
  1710  00143C  EC12  F010         	call	_lcd_clear	;wreg free
  1711  001440                     
  1712                           ;Teclado_Matricial_4x4_Cerradura_Electronica.c: 229:         sprintf(value,"Temp:%d",T_I
      +                          ntegral);
  1713  001440  0E6F               	movlw	low dht11@value
  1714  001442  6E58               	movwf	sprintf@s^0,c
  1715  001444  0E00               	movlw	high dht11@value
  1716  001446  6E59               	movwf	(sprintf@s+1)^0,c
  1717  001448  0EE4               	movlw	low STR_13
  1718  00144A  6E5A               	movwf	sprintf@fmt^0,c
  1719  00144C  0E08               	movlw	high STR_13
  1720  00144E  6E5B               	movwf	(sprintf@fmt+1)^0,c
  1721  001450  C07C  F05C         	movff	dht11@T_Integral,?_sprintf+4
  1722  001454  6A5D               	clrf	(?_sprintf+5)^0,c
  1723  001456  ECE6  F00E         	call	_sprintf	;wreg free
  1724  00145A                     
  1725                           ;Teclado_Matricial_4x4_Cerradura_Electronica.c: 230:         lcd_putc(value);
  1726  00145A  0E6F               	movlw	low dht11@value
  1727  00145C  6E05               	movwf	lcd_putc@a^0,c
  1728  00145E  0E00               	movlw	high dht11@value
  1729  001460  6E06               	movwf	(lcd_putc@a+1)^0,c
  1730  001462  EC77  F00D         	call	_lcd_putc	;wreg free
  1731  001466                     
  1732                           ;Teclado_Matricial_4x4_Cerradura_Electronica.c: 231:         lcd_gotoxy(2,1);
  1733  001466  0E01               	movlw	1
  1734  001468  6E04               	movwf	lcd_gotoxy@b^0,c
  1735  00146A  0E02               	movlw	2
  1736  00146C  EC26  F00E         	call	_lcd_gotoxy
  1737  001470                     
  1738                           ;Teclado_Matricial_4x4_Cerradura_Electronica.c: 232:         sprintf(value,"humedad: %d"
      +                          ,RH_Integral,"%");
  1739  001470  0E6F               	movlw	low dht11@value
  1740  001472  6E58               	movwf	sprintf@s^0,c
  1741  001474  0E00               	movlw	high dht11@value
  1742  001476  6E59               	movwf	(sprintf@s+1)^0,c
  1743  001478  0ECF               	movlw	low STR_21
  1744  00147A  6E5A               	movwf	sprintf@fmt^0,c
  1745  00147C  0E08               	movlw	high STR_21
  1746  00147E  6E5B               	movwf	(sprintf@fmt+1)^0,c
  1747  001480  C07B  F05C         	movff	dht11@RH_Integral,?_sprintf+4
  1748  001484  6A5D               	clrf	(?_sprintf+5)^0,c
  1749  001486  0EEC               	movlw	low STR_15
  1750  001488  6E5E               	movwf	(?_sprintf+6)^0,c
  1751  00148A  0E08               	movlw	high STR_15
  1752  00148C  6E5F               	movwf	(?_sprintf+7)^0,c
  1753  00148E  ECE6  F00E         	call	_sprintf	;wreg free
  1754  001492                     
  1755                           ;Teclado_Matricial_4x4_Cerradura_Electronica.c: 233:         lcd_putc(value);
  1756  001492  0E6F               	movlw	low dht11@value
  1757  001494  6E05               	movwf	lcd_putc@a^0,c
  1758  001496  0E00               	movlw	high dht11@value
  1759  001498  6E06               	movwf	(lcd_putc@a+1)^0,c
  1760  00149A  EC77  F00D         	call	_lcd_putc	;wreg free
  1761  00149E                     
  1762                           ;Teclado_Matricial_4x4_Cerradura_Electronica.c: 234:          _delay((unsigned long)((50
      +                          0)*(8000000/4000.0)));
  1763  00149E  0E06               	movlw	6
  1764  0014A0  0100               	movlb	0	; () banked
  1765  0014A2  6F6E               	movwf	(??_dht11+1)& (0+255),b
  1766  0014A4  0E13               	movlw	19
  1767  0014A6  6F6D               	movwf	??_dht11& (0+255),b
  1768  0014A8  0EAD               	movlw	173
  1769  0014AA                     u2867:
  1770  0014AA  2EE8               	decfsz	wreg,f,c
  1771  0014AC  D7FE               	bra	u2867
  1772  0014AE  2F6D               	decfsz	??_dht11& (0+255),f,b
  1773  0014B0  D7FC               	bra	u2867
  1774  0014B2  2F6E               	decfsz	(??_dht11+1)& (0+255),f,b
  1775  0014B4  D7FA               	bra	u2867
  1776  0014B6  D000               	nop2	
  1777  0014B8  EF5C  F009         	goto	l2552
  1778  0014BC  0012               	return		;funcret
  1779  0014BE                     __end_of_dht11:
  1780                           	callstack 0
  1781                           
  1782 ;; *************** function _sprintf *****************
  1783 ;; Defined at:
  1784 ;;		line 9 in file "C:\Program Files\Microchip\xc8\v2.36\pic\sources\c99\common\nf_sprintf.c"
  1785 ;; Parameters:    Size  Location     Type
  1786 ;;  s               2   87[COMRAM] PTR unsigned char 
  1787 ;;		 -> dht11@value(10), main@tiempo(30), 
  1788 ;;  fmt             2   89[COMRAM] PTR const unsigned char 
  1789 ;;		 -> STR_21(12), STR_20(8), STR_18(9), STR_17(8), 
  1790 ;;		 -> STR_14(9), STR_13(8), STR_11(16), 
  1791 ;; Auto vars:     Size  Location     Type
  1792 ;;  f              11    2[BANK0 ] struct _IO_FILE
  1793 ;;  ap              2    0[BANK0 ] PTR void [1]
  1794 ;;		 -> ?_sprintf(2), 
  1795 ;;  ret             2    0        int 
  1796 ;; Return value:  Size  Location     Type
  1797 ;;                  2   87[COMRAM] int 
  1798 ;; Registers used:
  1799 ;;		wreg, fsr1l, fsr1h, fsr2l, fsr2h, status,2, status,0, tblptrl, tblptrh, tblptru, cstack
  1800 ;; Tracked objects:
  1801 ;;		On entry : 0/0
  1802 ;;		On exit  : 0/0
  1803 ;;		Unchanged: 0/0
  1804 ;; Data sizes:     COMRAM   BANK0   BANK1   BANK2   BANK3   BANK4   BANK5   BANK6   BANK7
  1805 ;;      Params:         8       0       0       0       0       0       0       0       0
  1806 ;;      Locals:         0      13       0       0       0       0       0       0       0
  1807 ;;      Temps:          0       0       0       0       0       0       0       0       0
  1808 ;;      Totals:         8      13       0       0       0       0       0       0       0
  1809 ;;Total ram usage:       21 bytes
  1810 ;; Hardware stack levels used: 1
  1811 ;; Hardware stack levels required when called: 7
  1812 ;; This function calls:
  1813 ;;		_vfprintf
  1814 ;; This function is called by:
  1815 ;;		_main
  1816 ;;		_dht11
  1817 ;; This function uses a non-reentrant model
  1818 ;;
  1819                           
  1820                           	psect	text3
  1821  001DCC                     __ptext3:
  1822                           	callstack 0
  1823  001DCC                     _sprintf:
  1824                           	callstack 23
  1825  001DCC  0E5C               	movlw	low (?_sprintf+4)
  1826  001DCE  0100               	movlb	0	; () banked
  1827  001DD0  6F60               	movwf	sprintf@ap& (0+255),b
  1828  001DD2  0E00               	movlw	high (?_sprintf+4)
  1829  001DD4  6F61               	movwf	(sprintf@ap+1)& (0+255),b
  1830  001DD6  C058  F062         	movff	sprintf@s,sprintf@f
  1831  001DDA  C059  F063         	movff	sprintf@s+1,sprintf@f+1
  1832  001DDE                     
  1833                           ; BSR set to: 0
  1834  001DDE  0E00               	movlw	0
  1835  001DE0  6F66               	movwf	(sprintf@f+4)& (0+255),b
  1836  001DE2  0E00               	movlw	0
  1837  001DE4  6F65               	movwf	(sprintf@f+3)& (0+255),b
  1838  001DE6                     
  1839                           ; BSR set to: 0
  1840  001DE6  0E00               	movlw	0
  1841  001DE8  6F6C               	movwf	(sprintf@f+10)& (0+255),b
  1842  001DEA  0E00               	movlw	0
  1843  001DEC  6F6B               	movwf	(sprintf@f+9)& (0+255),b
  1844  001DEE                     
  1845                           ; BSR set to: 0
  1846  001DEE  0E62               	movlw	low sprintf@f
  1847  001DF0  6E50               	movwf	vfprintf@fp^0,c
  1848  001DF2  0E00               	movlw	high sprintf@f
  1849  001DF4  6E51               	movwf	(vfprintf@fp+1)^0,c
  1850  001DF6  C05A  F052         	movff	sprintf@fmt,vfprintf@fmt
  1851  001DFA  C05B  F053         	movff	sprintf@fmt+1,vfprintf@fmt+1
  1852  001DFE  0E60               	movlw	low sprintf@ap
  1853  001E00  6E54               	movwf	vfprintf@ap^0,c
  1854  001E02  0E00               	movlw	high sprintf@ap
  1855  001E04  6E55               	movwf	(vfprintf@ap+1)^0,c
  1856  001E06  EC59  F00E         	call	_vfprintf	;wreg free
  1857  001E0A  0100               	movlb	0	; () banked
  1858  001E0C  5165               	movf	(sprintf@f+3)& (0+255),w,b
  1859  001E0E  2458               	addwf	sprintf@s^0,w,c
  1860  001E10  6ED9               	movwf	fsr2l,c
  1861  001E12  5166               	movf	(sprintf@f+4)& (0+255),w,b
  1862  001E14  2059               	addwfc	(sprintf@s+1)^0,w,c
  1863  001E16  6EDA               	movwf	fsr2h,c
  1864  001E18  0E00               	movlw	0
  1865  001E1A  6EDF               	movwf	indf2,c
  1866  001E1C                     
  1867                           ; BSR set to: 0
  1868  001E1C  0012               	return		;funcret
  1869  001E1E                     __end_of_sprintf:
  1870                           	callstack 0
  1871                           
  1872 ;; *************** function _vfprintf *****************
  1873 ;; Defined at:
  1874 ;;		line 1390 in file "C:\Program Files\Microchip\xc8\v2.36\pic\sources\c99\common\doprnt.c"
  1875 ;; Parameters:    Size  Location     Type
  1876 ;;  fp              2   79[COMRAM] PTR struct _IO_FILE
  1877 ;;		 -> sprintf@f(11), 
  1878 ;;  fmt             2   81[COMRAM] PTR const unsigned char 
  1879 ;;		 -> STR_21(12), STR_20(8), STR_18(9), STR_17(8), 
  1880 ;;		 -> STR_14(9), STR_13(8), STR_11(16), 
  1881 ;;  ap              2   83[COMRAM] PTR PTR void 
  1882 ;;		 -> sprintf@ap(2), 
  1883 ;; Auto vars:     Size  Location     Type
  1884 ;;  cfmt            2   85[COMRAM] PTR unsigned char 
  1885 ;;		 -> STR_21(12), STR_20(8), STR_18(9), STR_17(8), 
  1886 ;;		 -> STR_14(9), STR_13(8), STR_11(16), 
  1887 ;; Return value:  Size  Location     Type
  1888 ;;                  2   79[COMRAM] int 
  1889 ;; Registers used:
  1890 ;;		wreg, fsr1l, fsr1h, fsr2l, fsr2h, status,2, status,0, tblptrl, tblptrh, tblptru, cstack
  1891 ;; Tracked objects:
  1892 ;;		On entry : 0/0
  1893 ;;		On exit  : 0/0
  1894 ;;		Unchanged: 0/0
  1895 ;; Data sizes:     COMRAM   BANK0   BANK1   BANK2   BANK3   BANK4   BANK5   BANK6   BANK7
  1896 ;;      Params:         6       0       0       0       0       0       0       0       0
  1897 ;;      Locals:         2       0       0       0       0       0       0       0       0
  1898 ;;      Temps:          0       0       0       0       0       0       0       0       0
  1899 ;;      Totals:         8       0       0       0       0       0       0       0       0
  1900 ;;Total ram usage:        8 bytes
  1901 ;; Hardware stack levels used: 1
  1902 ;; Hardware stack levels required when called: 6
  1903 ;; This function calls:
  1904 ;;		_vfpfcnvrt
  1905 ;; This function is called by:
  1906 ;;		_sprintf
  1907 ;; This function uses a non-reentrant model
  1908 ;;
  1909                           
  1910                           	psect	text4
  1911  001CB2                     __ptext4:
  1912                           	callstack 0
  1913  001CB2                     _vfprintf:
  1914                           	callstack 23
  1915  001CB2                     
  1916                           ;C:\Program Files\Microchip\xc8\v2.36\pic\sources\c99\common\doprnt.c: 1390: int vfprint
      +                          f(FILE *fp, const char *fmt, va_list ap);C:\Program Files\Microchip\xc8\v2.36\pic\source
      +                          s\c99\common\doprnt.c: 1391: {;C:\Program Files\Microchip\xc8\v2.36\pic\sources\c99\comm
      +                          on\doprnt.c: 1393:     char *cfmt;;C:\Program Files\Microchip\xc8\v2.36\pic\sources\c99\
      +                          common\doprnt.c: 1395:     cfmt = (char *)fmt;
  1917  001CB2  C052  F056         	movff	vfprintf@fmt,vfprintf@cfmt
  1918  001CB6  C053  F057         	movff	vfprintf@fmt+1,vfprintf@cfmt+1
  1919  001CBA                     
  1920                           ;C:\Program Files\Microchip\xc8\v2.36\pic\sources\c99\common\doprnt.c: 1396:     nout = 
      +                          0;
  1921  001CBA  0E00               	movlw	0
  1922  001CBC  0100               	movlb	0	; () banked
  1923  001CBE  6FC2               	movwf	(_nout+1)& (0+255),b
  1924  001CC0  0E00               	movlw	0
  1925  001CC2  6FC1               	movwf	_nout& (0+255),b
  1926                           
  1927                           ;C:\Program Files\Microchip\xc8\v2.36\pic\sources\c99\common\doprnt.c: 1397:     while (
      +                          *cfmt) {
  1928  001CC4  EF77  F00E         	goto	l2314
  1929  001CC8                     l2312:
  1930                           
  1931                           ; BSR set to: 0
  1932                           ;C:\Program Files\Microchip\xc8\v2.36\pic\sources\c99\common\doprnt.c: 1398:         nou
      +                          t += vfpfcnvrt(fp, &cfmt, ap);
  1933  001CC8  C050  F040         	movff	vfprintf@fp,vfpfcnvrt@fp
  1934  001CCC  C051  F041         	movff	vfprintf@fp+1,vfpfcnvrt@fp+1
  1935  001CD0  0E56               	movlw	low vfprintf@cfmt
  1936  001CD2  6E42               	movwf	vfpfcnvrt@fmt^0,c
  1937  001CD4  0E00               	movlw	high vfprintf@cfmt
  1938  001CD6  6E43               	movwf	(vfpfcnvrt@fmt+1)^0,c
  1939  001CD8  C054  F044         	movff	vfprintf@ap,vfpfcnvrt@ap
  1940  001CDC  C055  F045         	movff	vfprintf@ap+1,vfpfcnvrt@ap+1
  1941  001CE0  EC5F  F00A         	call	_vfpfcnvrt	;wreg free
  1942  001CE4  5040               	movf	?_vfpfcnvrt^0,w,c
  1943  001CE6  0100               	movlb	0	; () banked
  1944  001CE8  27C1               	addwf	_nout& (0+255),f,b
  1945  001CEA  5041               	movf	(?_vfpfcnvrt+1)^0,w,c
  1946  001CEC  23C2               	addwfc	(_nout+1)& (0+255),f,b
  1947  001CEE                     l2314:
  1948                           
  1949                           ; BSR set to: 0
  1950                           ;C:\Program Files\Microchip\xc8\v2.36\pic\sources\c99\common\doprnt.c: 1397:     while (
      +                          *cfmt) {
  1951  001CEE  C056  FFF6         	movff	vfprintf@cfmt,tblptrl
  1952  001CF2  C057  FFF7         	movff	vfprintf@cfmt+1,tblptrh
  1953  001CF6                     	if	0	;tblptru may be non-zero
  1954  001CF6                     	endif
  1955  001CF6                     	if	0	;tblptru may be non-zero
  1956  001CF6                     	endif
  1957  001CF6  0008               	tblrd		*
  1958  001CF8  50F5               	movf	tablat,w,c
  1959  001CFA  0900               	iorlw	0
  1960  001CFC  A4D8               	btfss	status,2,c
  1961  001CFE  EF83  F00E         	goto	u1871
  1962  001D02  EF85  F00E         	goto	u1870
  1963  001D06                     u1871:
  1964  001D06  EF64  F00E         	goto	l2312
  1965  001D0A                     u1870:
  1966  001D0A                     
  1967                           ; BSR set to: 0
  1968                           ;C:\Program Files\Microchip\xc8\v2.36\pic\sources\c99\common\doprnt.c: 1400:     return 
      +                          nout;
  1969  001D0A  C0C1  F050         	movff	_nout,?_vfprintf
  1970  001D0E  C0C2  F051         	movff	_nout+1,?_vfprintf+1
  1971  001D12                     
  1972                           ; BSR set to: 0
  1973  001D12  0012               	return		;funcret
  1974  001D14                     __end_of_vfprintf:
  1975                           	callstack 0
  1976                           
  1977 ;; *************** function _vfpfcnvrt *****************
  1978 ;; Defined at:
  1979 ;;		line 692 in file "C:\Program Files\Microchip\xc8\v2.36\pic\sources\c99\common\doprnt.c"
  1980 ;; Parameters:    Size  Location     Type
  1981 ;;  fp              2   63[COMRAM] PTR struct _IO_FILE
  1982 ;;		 -> sprintf@f(11), 
  1983 ;;  fmt             2   65[COMRAM] PTR PTR unsigned char 
  1984 ;;		 -> vfprintf@cfmt(2), 
  1985 ;;  ap              2   67[COMRAM] PTR PTR void 
  1986 ;;		 -> sprintf@ap(2), 
  1987 ;; Auto vars:     Size  Location     Type
  1988 ;;  ll              8   71[COMRAM] long long 
  1989 ;;  llu             8    0        unsigned long long 
  1990 ;;  f               4    0        unsigned long long 
  1991 ;;  vp              3    0        PTR void 
  1992 ;;  ct              3    0        unsigned char [3]
  1993 ;;  cp              3    0        PTR unsigned char 
  1994 ;;  i               2    0        int 
  1995 ;;  done            2    0        int 
  1996 ;;  c               1    0        unsigned char 
  1997 ;; Return value:  Size  Location     Type
  1998 ;;                  2   63[COMRAM] int 
  1999 ;; Registers used:
  2000 ;;		wreg, fsr1l, fsr1h, fsr2l, fsr2h, status,2, status,0, tblptrl, tblptrh, tblptru, cstack
  2001 ;; Tracked objects:
  2002 ;;		On entry : 0/0
  2003 ;;		On exit  : 0/0
  2004 ;;		Unchanged: 0/0
  2005 ;; Data sizes:     COMRAM   BANK0   BANK1   BANK2   BANK3   BANK4   BANK5   BANK6   BANK7
  2006 ;;      Params:         6       0       0       0       0       0       0       0       0
  2007 ;;      Locals:         8       0       0       0       0       0       0       0       0
  2008 ;;      Temps:          2       0       0       0       0       0       0       0       0
  2009 ;;      Totals:        16       0       0       0       0       0       0       0       0
  2010 ;;Total ram usage:       16 bytes
  2011 ;; Hardware stack levels used: 1
  2012 ;; Hardware stack levels required when called: 5
  2013 ;; This function calls:
  2014 ;;		_dtoa
  2015 ;;		_fputc
  2016 ;; This function is called by:
  2017 ;;		_vfprintf
  2018 ;; This function uses a non-reentrant model
  2019 ;;
  2020                           
  2021                           	psect	text5
  2022  0014BE                     __ptext5:
  2023                           	callstack 0
  2024  0014BE                     _vfpfcnvrt:
  2025                           	callstack 23
  2026  0014BE                     
  2027                           ;C:\Program Files\Microchip\xc8\v2.36\pic\sources\c99\common\doprnt.c: 692: static int v
      +                          fpfcnvrt(FILE *fp, char *fmt[], va_list ap);C:\Program Files\Microchip\xc8\v2.36\pic\sou
      +                          rces\c99\common\doprnt.c: 693: {;C:\Program Files\Microchip\xc8\v2.36\pic\sources\c99\co
      +                          mmon\doprnt.c: 694:     char c, *cp, ct[3];;C:\Program Files\Microchip\xc8\v2.36\pic\sou
      +                          rces\c99\common\doprnt.c: 695:     int done, i;;C:\Program Files\Microchip\xc8\v2.36\pic
      +                          \sources\c99\common\doprnt.c: 696:     long long ll;;C:\Program Files\Microchip\xc8\v2.3
      +                          6\pic\sources\c99\common\doprnt.c: 697:     unsigned long long llu;
  2028  0014BE  C042  FFD9         	movff	vfpfcnvrt@fmt,fsr2l
  2029  0014C2  C043  FFDA         	movff	vfpfcnvrt@fmt+1,fsr2h
  2030  0014C6  CFDE FFF6          	movff	postinc2,tblptrl
  2031  0014CA  CFDD FFF7          	movff	postdec2,tblptrh
  2032  0014CE                     	if	0	;tblptru may be non-zero
  2033  0014CE                     	endif
  2034  0014CE                     	if	0	;tblptru may be non-zero
  2035  0014CE                     	endif
  2036  0014CE  0008               	tblrd		*
  2037  0014D0  50F5               	movf	tablat,w,c
  2038  0014D2  0A25               	xorlw	37
  2039  0014D4  A4D8               	btfss	status,2,c
  2040  0014D6  EF6F  F00A         	goto	u1831
  2041  0014DA  EF71  F00A         	goto	u1830
  2042  0014DE                     u1831:
  2043  0014DE  EF1D  F00B         	goto	l2270
  2044  0014E2                     u1830:
  2045  0014E2                     
  2046                           ;C:\Program Files\Microchip\xc8\v2.36\pic\sources\c99\common\doprnt.c: 703:         ++*f
      +                          mt;
  2047  0014E2  C042  FFD9         	movff	vfpfcnvrt@fmt,fsr2l
  2048  0014E6  C043  FFDA         	movff	vfpfcnvrt@fmt+1,fsr2h
  2049  0014EA  2ADE               	incf	postinc2,f,c
  2050  0014EC  0E00               	movlw	0
  2051  0014EE  22DD               	addwfc	postdec2,f,c
  2052  0014F0                     
  2053                           ;C:\Program Files\Microchip\xc8\v2.36\pic\sources\c99\common\doprnt.c: 705:         flag
      +                          s = width = 0;
  2054  0014F0  0E00               	movlw	0
  2055  0014F2  0100               	movlb	0	; () banked
  2056  0014F4  6FC4               	movwf	(_width+1)& (0+255),b
  2057  0014F6  0E00               	movlw	0
  2058  0014F8  6FC3               	movwf	_width& (0+255),b
  2059  0014FA  C0C3  F0C7         	movff	_width,_flags
  2060  0014FE  C0C4  F0C8         	movff	_width+1,_flags+1
  2061  001502                     
  2062                           ; BSR set to: 0
  2063                           ;C:\Program Files\Microchip\xc8\v2.36\pic\sources\c99\common\doprnt.c: 706:         prec
      +                           = -1;
  2064  001502  69C5               	setf	_prec& (0+255),b
  2065  001504  69C6               	setf	(_prec+1)& (0+255),b
  2066  001506                     
  2067                           ; BSR set to: 0
  2068                           ;C:\Program Files\Microchip\xc8\v2.36\pic\sources\c99\common\doprnt.c: 847:         if (
      +                          (*fmt[0] == 'd') || (*fmt[0] == 'i')) {
  2069  001506  C042  FFD9         	movff	vfpfcnvrt@fmt,fsr2l
  2070  00150A  C043  FFDA         	movff	vfpfcnvrt@fmt+1,fsr2h
  2071  00150E  CFDE FFF6          	movff	postinc2,tblptrl
  2072  001512  CFDD FFF7          	movff	postdec2,tblptrh
  2073  001516                     	if	0	;tblptru may be non-zero
  2074  001516                     	endif
  2075  001516                     	if	0	;tblptru may be non-zero
  2076  001516                     	endif
  2077  001516  0008               	tblrd		*
  2078  001518  50F5               	movf	tablat,w,c
  2079  00151A  0A64               	xorlw	100
  2080  00151C  B4D8               	btfsc	status,2,c
  2081  00151E  EF93  F00A         	goto	u1841
  2082  001522  EF95  F00A         	goto	u1840
  2083  001526                     u1841:
  2084  001526  EFA7  F00A         	goto	l2248
  2085  00152A                     u1840:
  2086  00152A                     
  2087                           ; BSR set to: 0
  2088  00152A  C042  FFD9         	movff	vfpfcnvrt@fmt,fsr2l
  2089  00152E  C043  FFDA         	movff	vfpfcnvrt@fmt+1,fsr2h
  2090  001532  CFDE FFF6          	movff	postinc2,tblptrl
  2091  001536  CFDD FFF7          	movff	postdec2,tblptrh
  2092  00153A                     	if	0	;tblptru may be non-zero
  2093  00153A                     	endif
  2094  00153A                     	if	0	;tblptru may be non-zero
  2095  00153A                     	endif
  2096  00153A  0008               	tblrd		*
  2097  00153C  50F5               	movf	tablat,w,c
  2098  00153E  0A69               	xorlw	105
  2099  001540  A4D8               	btfss	status,2,c
  2100  001542  EFA5  F00A         	goto	u1851
  2101  001546  EFA7  F00A         	goto	u1850
  2102  00154A                     u1851:
  2103  00154A  EFE7  F00A         	goto	l2254
  2104  00154E                     u1850:
  2105  00154E                     l2248:
  2106                           
  2107                           ; BSR set to: 0
  2108                           ;C:\Program Files\Microchip\xc8\v2.36\pic\sources\c99\common\doprnt.c: 849:             
      +                          ++*fmt;
  2109  00154E  C042  FFD9         	movff	vfpfcnvrt@fmt,fsr2l
  2110  001552  C043  FFDA         	movff	vfpfcnvrt@fmt+1,fsr2h
  2111  001556  2ADE               	incf	postinc2,f,c
  2112  001558  0E00               	movlw	0
  2113  00155A  22DD               	addwfc	postdec2,f,c
  2114                           
  2115                           ;C:\Program Files\Microchip\xc8\v2.36\pic\sources\c99\common\doprnt.c: 850:             
      +                          ll = (long long)(*(int *)__va_arg(*(int **)ap, (int)0));
  2116  00155C  C044  FFD9         	movff	vfpfcnvrt@ap,fsr2l
  2117  001560  C045  FFDA         	movff	vfpfcnvrt@ap+1,fsr2h
  2118  001564  CFDF F046          	movff	indf2,??_vfpfcnvrt
  2119  001568  0E02               	movlw	2
  2120  00156A  26DE               	addwf	postinc2,f,c
  2121  00156C  CFDF F047          	movff	indf2,??_vfpfcnvrt+1
  2122  001570  0E00               	movlw	0
  2123  001572  22DD               	addwfc	postdec2,f,c
  2124  001574  C046  FFD9         	movff	??_vfpfcnvrt,fsr2l
  2125  001578  C047  FFDA         	movff	??_vfpfcnvrt+1,fsr2h
  2126  00157C  CFDE F048          	movff	postinc2,vfpfcnvrt@ll
  2127  001580  CFDD F049          	movff	postdec2,vfpfcnvrt@ll+1
  2128  001584  0E00               	movlw	0
  2129  001586  BE49               	btfsc	(vfpfcnvrt@ll+1)^0,7,c
  2130  001588  0EFF               	movlw	-1
  2131  00158A  6E4A               	movwf	(vfpfcnvrt@ll+2)^0,c
  2132  00158C  6E4B               	movwf	(vfpfcnvrt@ll+3)^0,c
  2133  00158E  6E4C               	movwf	(vfpfcnvrt@ll+4)^0,c
  2134  001590  6E4D               	movwf	(vfpfcnvrt@ll+5)^0,c
  2135  001592  6E4E               	movwf	(vfpfcnvrt@ll+6)^0,c
  2136  001594  6E4F               	movwf	(vfpfcnvrt@ll+7)^0,c
  2137  001596                     
  2138                           ; BSR set to: 0
  2139                           ;C:\Program Files\Microchip\xc8\v2.36\pic\sources\c99\common\doprnt.c: 852:             
      +                          return dtoa(fp, ll);
  2140  001596  C040  F01C         	movff	vfpfcnvrt@fp,dtoa@fp
  2141  00159A  C041  F01D         	movff	vfpfcnvrt@fp+1,dtoa@fp+1
  2142  00159E  C048  F01E         	movff	vfpfcnvrt@ll,dtoa@d
  2143  0015A2  C049  F01F         	movff	vfpfcnvrt@ll+1,dtoa@d+1
  2144  0015A6  C04A  F020         	movff	vfpfcnvrt@ll+2,dtoa@d+2
  2145  0015AA  C04B  F021         	movff	vfpfcnvrt@ll+3,dtoa@d+3
  2146  0015AE  C04C  F022         	movff	vfpfcnvrt@ll+4,dtoa@d+4
  2147  0015B2  C04D  F023         	movff	vfpfcnvrt@ll+5,dtoa@d+5
  2148  0015B6  C04E  F024         	movff	vfpfcnvrt@ll+6,dtoa@d+6
  2149  0015BA  C04F  F025         	movff	vfpfcnvrt@ll+7,dtoa@d+7
  2150  0015BE  EC8A  F006         	call	_dtoa	;wreg free
  2151  0015C2  C01C  F040         	movff	?_dtoa,?_vfpfcnvrt
  2152  0015C6  C01D  F041         	movff	?_dtoa+1,?_vfpfcnvrt+1
  2153  0015CA  EF38  F00B         	goto	l1005
  2154  0015CE                     l2254:
  2155                           
  2156                           ; BSR set to: 0
  2157                           ;C:\Program Files\Microchip\xc8\v2.36\pic\sources\c99\common\doprnt.c: 1372:         if 
      +                          ((*fmt)[0] == '%') {
  2158  0015CE  C042  FFD9         	movff	vfpfcnvrt@fmt,fsr2l
  2159  0015D2  C043  FFDA         	movff	vfpfcnvrt@fmt+1,fsr2h
  2160  0015D6  CFDE FFF6          	movff	postinc2,tblptrl
  2161  0015DA  CFDD FFF7          	movff	postdec2,tblptrh
  2162  0015DE                     	if	0	;tblptru may be non-zero
  2163  0015DE                     	endif
  2164  0015DE                     	if	0	;tblptru may be non-zero
  2165  0015DE                     	endif
  2166  0015DE  0008               	tblrd		*
  2167  0015E0  50F5               	movf	tablat,w,c
  2168  0015E2  0A25               	xorlw	37
  2169  0015E4  A4D8               	btfss	status,2,c
  2170  0015E6  EFF7  F00A         	goto	u1861
  2171  0015EA  EFF9  F00A         	goto	u1860
  2172  0015EE                     u1861:
  2173  0015EE  EF10  F00B         	goto	l2264
  2174  0015F2                     u1860:
  2175  0015F2                     
  2176                           ; BSR set to: 0
  2177                           ;C:\Program Files\Microchip\xc8\v2.36\pic\sources\c99\common\doprnt.c: 1373:            
      +                           ++*fmt;
  2178  0015F2  C042  FFD9         	movff	vfpfcnvrt@fmt,fsr2l
  2179  0015F6  C043  FFDA         	movff	vfpfcnvrt@fmt+1,fsr2h
  2180  0015FA  2ADE               	incf	postinc2,f,c
  2181  0015FC  0E00               	movlw	0
  2182  0015FE  22DD               	addwfc	postdec2,f,c
  2183  001600                     
  2184                           ; BSR set to: 0
  2185                           ;C:\Program Files\Microchip\xc8\v2.36\pic\sources\c99\common\doprnt.c: 1374:            
      +                           fputc((int)'%', fp);
  2186  001600  0E00               	movlw	0
  2187  001602  6E02               	movwf	(fputc@c+1)^0,c
  2188  001604  0E25               	movlw	37
  2189  001606  6E01               	movwf	fputc@c^0,c
  2190  001608  C040  F003         	movff	vfpfcnvrt@fp,fputc@fp
  2191  00160C  C041  F004         	movff	vfpfcnvrt@fp+1,fputc@fp+1
  2192  001610  ECAF  F00C         	call	_fputc	;wreg free
  2193  001614                     l2260:
  2194                           
  2195                           ;C:\Program Files\Microchip\xc8\v2.36\pic\sources\c99\common\doprnt.c: 1375:            
      +                           return 1;
  2196  001614  0E00               	movlw	0
  2197  001616  6E41               	movwf	(?_vfpfcnvrt+1)^0,c
  2198  001618  0E01               	movlw	1
  2199  00161A  6E40               	movwf	?_vfpfcnvrt^0,c
  2200  00161C  EF38  F00B         	goto	l1005
  2201  001620                     l2264:
  2202                           
  2203                           ; BSR set to: 0
  2204                           ;C:\Program Files\Microchip\xc8\v2.36\pic\sources\c99\common\doprnt.c: 1379:         ++*
      +                          fmt;
  2205  001620  C042  FFD9         	movff	vfpfcnvrt@fmt,fsr2l
  2206  001624  C043  FFDA         	movff	vfpfcnvrt@fmt+1,fsr2h
  2207  001628  2ADE               	incf	postinc2,f,c
  2208  00162A  0E00               	movlw	0
  2209  00162C  22DD               	addwfc	postdec2,f,c
  2210  00162E                     
  2211                           ; BSR set to: 0
  2212                           ;C:\Program Files\Microchip\xc8\v2.36\pic\sources\c99\common\doprnt.c: 1380:         ret
      +                          urn 0;
  2213  00162E  0E00               	movlw	0
  2214  001630  6E41               	movwf	(?_vfpfcnvrt+1)^0,c
  2215  001632  0E00               	movlw	0
  2216  001634  6E40               	movwf	?_vfpfcnvrt^0,c
  2217  001636  EF38  F00B         	goto	l1005
  2218  00163A                     l2270:
  2219                           
  2220                           ;C:\Program Files\Microchip\xc8\v2.36\pic\sources\c99\common\doprnt.c: 1384:     fputc((
      +                          int)(*fmt)[0], fp);
  2221  00163A  C042  FFD9         	movff	vfpfcnvrt@fmt,fsr2l
  2222  00163E  C043  FFDA         	movff	vfpfcnvrt@fmt+1,fsr2h
  2223  001642  CFDE FFF6          	movff	postinc2,tblptrl
  2224  001646  CFDD FFF7          	movff	postdec2,tblptrh
  2225  00164A                     	if	0	;tblptru may be non-zero
  2226  00164A                     	endif
  2227  00164A                     	if	0	;tblptru may be non-zero
  2228  00164A                     	endif
  2229  00164A  0008               	tblrd		*
  2230  00164C  50F5               	movf	tablat,w,c
  2231  00164E  6E01               	movwf	fputc@c^0,c
  2232  001650  6A02               	clrf	(fputc@c+1)^0,c
  2233  001652  C040  F003         	movff	vfpfcnvrt@fp,fputc@fp
  2234  001656  C041  F004         	movff	vfpfcnvrt@fp+1,fputc@fp+1
  2235  00165A  ECAF  F00C         	call	_fputc	;wreg free
  2236  00165E                     
  2237                           ;C:\Program Files\Microchip\xc8\v2.36\pic\sources\c99\common\doprnt.c: 1385:     ++*fmt;
  2238  00165E  C042  FFD9         	movff	vfpfcnvrt@fmt,fsr2l
  2239  001662  C043  FFDA         	movff	vfpfcnvrt@fmt+1,fsr2h
  2240  001666  2ADE               	incf	postinc2,f,c
  2241  001668  0E00               	movlw	0
  2242  00166A  22DD               	addwfc	postdec2,f,c
  2243  00166C  EF0A  F00B         	goto	l2260
  2244  001670                     l1005:
  2245  001670  0012               	return		;funcret
  2246  001672                     __end_of_vfpfcnvrt:
  2247                           	callstack 0
  2248                           
  2249 ;; *************** function _dtoa *****************
  2250 ;; Defined at:
  2251 ;;		line 287 in file "C:\Program Files\Microchip\xc8\v2.36\pic\sources\c99\common\doprnt.c"
  2252 ;; Parameters:    Size  Location     Type
  2253 ;;  fp              2   27[COMRAM] PTR struct _IO_FILE
  2254 ;;		 -> sprintf@f(11), 
  2255 ;;  d               8   29[COMRAM] long long 
  2256 ;; Auto vars:     Size  Location     Type
  2257 ;;  n               8   53[COMRAM] long long 
  2258 ;;  i               2   61[COMRAM] int 
  2259 ;;  s               2   51[COMRAM] int 
  2260 ;;  w               2   49[COMRAM] int 
  2261 ;;  p               2   47[COMRAM] int 
  2262 ;; Return value:  Size  Location     Type
  2263 ;;                  2   27[COMRAM] int 
  2264 ;; Registers used:
  2265 ;;		wreg, fsr1l, fsr1h, fsr2l, fsr2h, status,2, status,0, cstack
  2266 ;; Tracked objects:
  2267 ;;		On entry : 0/0
  2268 ;;		On exit  : 0/0
  2269 ;;		Unchanged: 0/0
  2270 ;; Data sizes:     COMRAM   BANK0   BANK1   BANK2   BANK3   BANK4   BANK5   BANK6   BANK7
  2271 ;;      Params:        10       0       0       0       0       0       0       0       0
  2272 ;;      Locals:        18       0       0       0       0       0       0       0       0
  2273 ;;      Temps:          8       0       0       0       0       0       0       0       0
  2274 ;;      Totals:        36       0       0       0       0       0       0       0       0
  2275 ;;Total ram usage:       36 bytes
  2276 ;; Hardware stack levels used: 1
  2277 ;; Hardware stack levels required when called: 4
  2278 ;; This function calls:
  2279 ;;		___aodiv
  2280 ;;		___aomod
  2281 ;;		_abs
  2282 ;;		_pad
  2283 ;; This function is called by:
  2284 ;;		_vfpfcnvrt
  2285 ;; This function uses a non-reentrant model
  2286 ;;
  2287                           
  2288                           	psect	text6
  2289  000D14                     __ptext6:
  2290                           	callstack 0
  2291  000D14                     _dtoa:
  2292                           	callstack 23
  2293  000D14                     
  2294                           ;C:\Program Files\Microchip\xc8\v2.36\pic\sources\c99\common\doprnt.c: 287: static int d
      +                          toa(FILE *fp, long long d);C:\Program Files\Microchip\xc8\v2.36\pic\sources\c99\common\d
      +                          oprnt.c: 288: {;C:\Program Files\Microchip\xc8\v2.36\pic\sources\c99\common\doprnt.c: 28
      +                          9:     int i, p, s, w;;C:\Program Files\Microchip\xc8\v2.36\pic\sources\c99\common\doprn
      +                          t.c: 290:     long long n;;C:\Program Files\Microchip\xc8\v2.36\pic\sources\c99\common\d
      +                          oprnt.c: 293:     n = d;
  2295  000D14  C01E  F036         	movff	dtoa@d,dtoa@n
  2296  000D18  C01F  F037         	movff	dtoa@d+1,dtoa@n+1
  2297  000D1C  C020  F038         	movff	dtoa@d+2,dtoa@n+2
  2298  000D20  C021  F039         	movff	dtoa@d+3,dtoa@n+3
  2299  000D24  C022  F03A         	movff	dtoa@d+4,dtoa@n+4
  2300  000D28  C023  F03B         	movff	dtoa@d+5,dtoa@n+5
  2301  000D2C  C024  F03C         	movff	dtoa@d+6,dtoa@n+6
  2302  000D30  C025  F03D         	movff	dtoa@d+7,dtoa@n+7
  2303  000D34                     
  2304                           ;C:\Program Files\Microchip\xc8\v2.36\pic\sources\c99\common\doprnt.c: 294:     s = n < 
      +                          0 ? 1 : 0;
  2305  000D34  BE3D               	btfsc	(dtoa@n+7)^0,7,c
  2306  000D36  EF9F  F006         	goto	u1641
  2307  000D3A  EFA2  F006         	goto	u1640
  2308  000D3E                     u1641:
  2309  000D3E  0E01               	movlw	1
  2310  000D40  EFA3  F006         	goto	u1650
  2311  000D44                     u1640:
  2312  000D44  0E00               	movlw	0
  2313  000D46                     u1650:
  2314  000D46  6E34               	movwf	dtoa@s^0,c
  2315  000D48  6A35               	clrf	(dtoa@s+1)^0,c
  2316                           
  2317                           ;C:\Program Files\Microchip\xc8\v2.36\pic\sources\c99\common\doprnt.c: 295:     if (s) {
  2318  000D4A  5034               	movf	dtoa@s^0,w,c
  2319  000D4C  1035               	iorwf	(dtoa@s+1)^0,w,c
  2320  000D4E  B4D8               	btfsc	status,2,c
  2321  000D50  EFAC  F006         	goto	u1661
  2322  000D54  EFAE  F006         	goto	u1660
  2323  000D58                     u1661:
  2324  000D58  EFBE  F006         	goto	l2164
  2325  000D5C                     u1660:
  2326  000D5C                     
  2327                           ;C:\Program Files\Microchip\xc8\v2.36\pic\sources\c99\common\doprnt.c: 296:         n = 
      +                          -n;
  2328  000D5C  1E3D               	comf	(dtoa@n+7)^0,f,c
  2329  000D5E  1E3C               	comf	(dtoa@n+6)^0,f,c
  2330  000D60  1E3B               	comf	(dtoa@n+5)^0,f,c
  2331  000D62  1E3A               	comf	(dtoa@n+4)^0,f,c
  2332  000D64  1E39               	comf	(dtoa@n+3)^0,f,c
  2333  000D66  1E38               	comf	(dtoa@n+2)^0,f,c
  2334  000D68  1E37               	comf	(dtoa@n+1)^0,f,c
  2335  000D6A  6C36               	negf	dtoa@n^0,c
  2336  000D6C  0E00               	movlw	0
  2337  000D6E  2237               	addwfc	(dtoa@n+1)^0,f,c
  2338  000D70  2238               	addwfc	(dtoa@n+2)^0,f,c
  2339  000D72  2239               	addwfc	(dtoa@n+3)^0,f,c
  2340  000D74  223A               	addwfc	(dtoa@n+4)^0,f,c
  2341  000D76  223B               	addwfc	(dtoa@n+5)^0,f,c
  2342  000D78  223C               	addwfc	(dtoa@n+6)^0,f,c
  2343  000D7A  223D               	addwfc	(dtoa@n+7)^0,f,c
  2344  000D7C                     l2164:
  2345                           
  2346                           ;C:\Program Files\Microchip\xc8\v2.36\pic\sources\c99\common\doprnt.c: 300:     if (!(pr
      +                          ec < 0)) {
  2347  000D7C  0100               	movlb	0	; () banked
  2348  000D7E  BFC6               	btfsc	(_prec+1)& (0+255),7,b
  2349  000D80  EFC4  F006         	goto	u1671
  2350  000D84  EFC6  F006         	goto	u1670
  2351  000D88                     u1671:
  2352  000D88  EFC7  F006         	goto	l2168
  2353  000D8C                     u1670:
  2354  000D8C                     
  2355                           ; BSR set to: 0
  2356                           ;C:\Program Files\Microchip\xc8\v2.36\pic\sources\c99\common\doprnt.c: 301:         flag
      +                          s &= ~(1 << 1);
  2357  000D8C  93C7               	bcf	_flags& (0+255),1,b
  2358  000D8E                     l2168:
  2359                           
  2360                           ; BSR set to: 0
  2361                           ;C:\Program Files\Microchip\xc8\v2.36\pic\sources\c99\common\doprnt.c: 303:     p = (0 <
      +                           prec) ? prec : 1;
  2362  000D8E  BFC6               	btfsc	(_prec+1)& (0+255),7,b
  2363  000D90  EFD4  F006         	goto	u1680
  2364  000D94  51C6               	movf	(_prec+1)& (0+255),w,b
  2365  000D96  E106               	bnz	u1681
  2366  000D98  05C5               	decf	_prec& (0+255),w,b
  2367  000D9A  B0D8               	btfsc	status,0,c
  2368  000D9C  EFD2  F006         	goto	u1681
  2369  000DA0  EFD4  F006         	goto	u1680
  2370  000DA4                     u1681:
  2371  000DA4  EFDA  F006         	goto	l978
  2372  000DA8                     u1680:
  2373  000DA8                     
  2374                           ; BSR set to: 0
  2375  000DA8  0E00               	movlw	0
  2376  000DAA  6E31               	movwf	(dtoa@p+1)^0,c
  2377  000DAC  0E01               	movlw	1
  2378  000DAE  6E30               	movwf	dtoa@p^0,c
  2379  000DB0  EFDE  F006         	goto	l980
  2380  000DB4                     l978:
  2381                           
  2382                           ; BSR set to: 0
  2383  000DB4  C0C5  F030         	movff	_prec,dtoa@p
  2384  000DB8  C0C6  F031         	movff	_prec+1,dtoa@p+1
  2385  000DBC                     l980:
  2386                           
  2387                           ; BSR set to: 0
  2388                           ;C:\Program Files\Microchip\xc8\v2.36\pic\sources\c99\common\doprnt.c: 304:     w = widt
      +                          h;
  2389  000DBC  C0C3  F032         	movff	_width,dtoa@w
  2390  000DC0  C0C4  F033         	movff	_width+1,dtoa@w+1
  2391  000DC4                     
  2392                           ; BSR set to: 0
  2393                           ;C:\Program Files\Microchip\xc8\v2.36\pic\sources\c99\common\doprnt.c: 305:     if (s ||
      +                           (flags & (1 << 2))) {
  2394  000DC4  5034               	movf	dtoa@s^0,w,c
  2395  000DC6  1035               	iorwf	(dtoa@s+1)^0,w,c
  2396  000DC8  A4D8               	btfss	status,2,c
  2397  000DCA  EFE9  F006         	goto	u1691
  2398  000DCE  EFEB  F006         	goto	u1690
  2399  000DD2                     u1691:
  2400  000DD2  EFF2  F006         	goto	l2176
  2401  000DD6                     u1690:
  2402  000DD6                     
  2403                           ; BSR set to: 0
  2404  000DD6  A5C7               	btfss	_flags& (0+255),2,b
  2405  000DD8  EFF0  F006         	goto	u1701
  2406  000DDC  EFF2  F006         	goto	u1700
  2407  000DE0                     u1701:
  2408  000DE0  EFF5  F006         	goto	l2178
  2409  000DE4                     u1700:
  2410  000DE4                     l2176:
  2411                           
  2412                           ; BSR set to: 0
  2413                           ;C:\Program Files\Microchip\xc8\v2.36\pic\sources\c99\common\doprnt.c: 306:         --w;
  2414  000DE4  0632               	decf	dtoa@w^0,f,c
  2415  000DE6  A0D8               	btfss	status,0,c
  2416  000DE8  0633               	decf	(dtoa@w+1)^0,f,c
  2417  000DEA                     l2178:
  2418                           
  2419                           ; BSR set to: 0
  2420                           ;C:\Program Files\Microchip\xc8\v2.36\pic\sources\c99\common\doprnt.c: 310:     i = size
      +                          of(dbuf) - 1;
  2421  000DEA  0E00               	movlw	0
  2422  000DEC  6E3F               	movwf	(dtoa@i+1)^0,c
  2423  000DEE  0E1F               	movlw	31
  2424  000DF0  6E3E               	movwf	dtoa@i^0,c
  2425  000DF2                     
  2426                           ; BSR set to: 0
  2427                           ;C:\Program Files\Microchip\xc8\v2.36\pic\sources\c99\common\doprnt.c: 311:     dbuf[i] 
      +                          = '\0';
  2428  000DF2  0E00               	movlw	0
  2429  000DF4  0101               	movlb	1	; () banked
  2430  000DF6  6F1F               	movwf	(_dbuf+31)& (0+255),b
  2431                           
  2432                           ;C:\Program Files\Microchip\xc8\v2.36\pic\sources\c99\common\doprnt.c: 312:     while (!
      +                          (i < 1) && (n || (0 < p) || ((0 < w) && (flags & (1 << 1))))) {
  2433  000DF8  EF7A  F007         	goto	l2192
  2434  000DFC                     l2182:
  2435                           
  2436                           ;C:\Program Files\Microchip\xc8\v2.36\pic\sources\c99\common\doprnt.c: 313:         --i;
  2437  000DFC  063E               	decf	dtoa@i^0,f,c
  2438  000DFE  A0D8               	btfss	status,0,c
  2439  000E00  063F               	decf	(dtoa@i+1)^0,f,c
  2440  000E02                     
  2441                           ;C:\Program Files\Microchip\xc8\v2.36\pic\sources\c99\common\doprnt.c: 314:         dbuf
      +                          [i] = (char)((int)'0' + abs(n % 10));
  2442  000E02  0E00               	movlw	low _dbuf
  2443  000E04  243E               	addwf	dtoa@i^0,w,c
  2444  000E06  6ED9               	movwf	fsr2l,c
  2445  000E08  0E01               	movlw	high _dbuf
  2446  000E0A  203F               	addwfc	(dtoa@i+1)^0,w,c
  2447  000E0C  6EDA               	movwf	fsr2h,c
  2448  000E0E  C036  F001         	movff	dtoa@n,___aomod@dividend
  2449  000E12  C037  F002         	movff	dtoa@n+1,___aomod@dividend+1
  2450  000E16  C038  F003         	movff	dtoa@n+2,___aomod@dividend+2
  2451  000E1A  C039  F004         	movff	dtoa@n+3,___aomod@dividend+3
  2452  000E1E  C03A  F005         	movff	dtoa@n+4,___aomod@dividend+4
  2453  000E22  C03B  F006         	movff	dtoa@n+5,___aomod@dividend+5
  2454  000E26  C03C  F007         	movff	dtoa@n+6,___aomod@dividend+6
  2455  000E2A  C03D  F008         	movff	dtoa@n+7,___aomod@dividend+7
  2456  000E2E  0E0A               	movlw	10
  2457  000E30  6E09               	movwf	___aomod@divisor^0,c
  2458  000E32  0E00               	movlw	0
  2459  000E34  6E0A               	movwf	(___aomod@divisor+1)^0,c
  2460  000E36  0E00               	movlw	0
  2461  000E38  6E0B               	movwf	(___aomod@divisor+2)^0,c
  2462  000E3A  0E00               	movlw	0
  2463  000E3C  6E0C               	movwf	(___aomod@divisor+3)^0,c
  2464  000E3E  0E00               	movlw	0
  2465  000E40  6E0D               	movwf	(___aomod@divisor+4)^0,c
  2466  000E42  0E00               	movlw	0
  2467  000E44  6E0E               	movwf	(___aomod@divisor+5)^0,c
  2468  000E46  0E00               	movlw	0
  2469  000E48  6E0F               	movwf	(___aomod@divisor+6)^0,c
  2470  000E4A  0E00               	movlw	0
  2471  000E4C  6E10               	movwf	(___aomod@divisor+7)^0,c
  2472  000E4E  ECFD  F00B         	call	___aomod	;wreg free
  2473  000E52  C001  F026         	movff	?___aomod,??_dtoa
  2474  000E56  C002  F027         	movff	?___aomod+1,??_dtoa+1
  2475  000E5A  C003  F028         	movff	?___aomod+2,??_dtoa+2
  2476  000E5E  C004  F029         	movff	?___aomod+3,??_dtoa+3
  2477  000E62  C005  F02A         	movff	?___aomod+4,??_dtoa+4
  2478  000E66  C006  F02B         	movff	?___aomod+5,??_dtoa+5
  2479  000E6A  C007  F02C         	movff	?___aomod+6,??_dtoa+6
  2480  000E6E  C008  F02D         	movff	?___aomod+7,??_dtoa+7
  2481  000E72  C026  F013         	movff	??_dtoa,abs@a
  2482  000E76  C028  F014         	movff	??_dtoa+2,abs@a+1
  2483  000E7A  EC52  F00F         	call	_abs	;wreg free
  2484  000E7E  5013               	movf	?_abs^0,w,c
  2485  000E80  0F30               	addlw	48
  2486  000E82  6EDF               	movwf	indf2,c
  2487  000E84                     
  2488                           ;C:\Program Files\Microchip\xc8\v2.36\pic\sources\c99\common\doprnt.c: 315:         --p;
  2489  000E84  0630               	decf	dtoa@p^0,f,c
  2490  000E86  A0D8               	btfss	status,0,c
  2491  000E88  0631               	decf	(dtoa@p+1)^0,f,c
  2492  000E8A                     
  2493                           ;C:\Program Files\Microchip\xc8\v2.36\pic\sources\c99\common\doprnt.c: 316:         --w;
  2494  000E8A  0632               	decf	dtoa@w^0,f,c
  2495  000E8C  A0D8               	btfss	status,0,c
  2496  000E8E  0633               	decf	(dtoa@w+1)^0,f,c
  2497  000E90                     
  2498                           ;C:\Program Files\Microchip\xc8\v2.36\pic\sources\c99\common\doprnt.c: 317:         n = 
      +                          n / 10;
  2499  000E90  C036  F001         	movff	dtoa@n,___aodiv@dividend
  2500  000E94  C037  F002         	movff	dtoa@n+1,___aodiv@dividend+1
  2501  000E98  C038  F003         	movff	dtoa@n+2,___aodiv@dividend+2
  2502  000E9C  C039  F004         	movff	dtoa@n+3,___aodiv@dividend+3
  2503  000EA0  C03A  F005         	movff	dtoa@n+4,___aodiv@dividend+4
  2504  000EA4  C03B  F006         	movff	dtoa@n+5,___aodiv@dividend+5
  2505  000EA8  C03C  F007         	movff	dtoa@n+6,___aodiv@dividend+6
  2506  000EAC  C03D  F008         	movff	dtoa@n+7,___aodiv@dividend+7
  2507  000EB0  0E0A               	movlw	10
  2508  000EB2  6E09               	movwf	___aodiv@divisor^0,c
  2509  000EB4  0E00               	movlw	0
  2510  000EB6  6E0A               	movwf	(___aodiv@divisor+1)^0,c
  2511  000EB8  0E00               	movlw	0
  2512  000EBA  6E0B               	movwf	(___aodiv@divisor+2)^0,c
  2513  000EBC  0E00               	movlw	0
  2514  000EBE  6E0C               	movwf	(___aodiv@divisor+3)^0,c
  2515  000EC0  0E00               	movlw	0
  2516  000EC2  6E0D               	movwf	(___aodiv@divisor+4)^0,c
  2517  000EC4  0E00               	movlw	0
  2518  000EC6  6E0E               	movwf	(___aodiv@divisor+5)^0,c
  2519  000EC8  0E00               	movlw	0
  2520  000ECA  6E0F               	movwf	(___aodiv@divisor+6)^0,c
  2521  000ECC  0E00               	movlw	0
  2522  000ECE  6E10               	movwf	(___aodiv@divisor+7)^0,c
  2523  000ED0  EC39  F00B         	call	___aodiv	;wreg free
  2524  000ED4  C001  F036         	movff	?___aodiv,dtoa@n
  2525  000ED8  C002  F037         	movff	?___aodiv+1,dtoa@n+1
  2526  000EDC  C003  F038         	movff	?___aodiv+2,dtoa@n+2
  2527  000EE0  C004  F039         	movff	?___aodiv+3,dtoa@n+3
  2528  000EE4  C005  F03A         	movff	?___aodiv+4,dtoa@n+4
  2529  000EE8  C006  F03B         	movff	?___aodiv+5,dtoa@n+5
  2530  000EEC  C007  F03C         	movff	?___aodiv+6,dtoa@n+6
  2531  000EF0  C008  F03D         	movff	?___aodiv+7,dtoa@n+7
  2532  000EF4                     l2192:
  2533                           
  2534                           ;C:\Program Files\Microchip\xc8\v2.36\pic\sources\c99\common\doprnt.c: 312:     while (!
      +                          (i < 1) && (n || (0 < p) || ((0 < w) && (flags & (1 << 1))))) {
  2535  000EF4  BE3F               	btfsc	(dtoa@i+1)^0,7,c
  2536  000EF6  EF85  F007         	goto	u1711
  2537  000EFA  503F               	movf	(dtoa@i+1)^0,w,c
  2538  000EFC  E108               	bnz	u1710
  2539  000EFE  043E               	decf	dtoa@i^0,w,c
  2540  000F00  A0D8               	btfss	status,0,c
  2541  000F02  EF85  F007         	goto	u1711
  2542  000F06  EF87  F007         	goto	u1710
  2543  000F0A                     u1711:
  2544  000F0A  EFB8  F007         	goto	l2202
  2545  000F0E                     u1710:
  2546  000F0E  5036               	movf	dtoa@n^0,w,c
  2547  000F10  1037               	iorwf	(dtoa@n+1)^0,w,c
  2548  000F12  1038               	iorwf	(dtoa@n+2)^0,w,c
  2549  000F14  1039               	iorwf	(dtoa@n+3)^0,w,c
  2550  000F16  103A               	iorwf	(dtoa@n+4)^0,w,c
  2551  000F18  103B               	iorwf	(dtoa@n+5)^0,w,c
  2552  000F1A  103C               	iorwf	(dtoa@n+6)^0,w,c
  2553  000F1C  103D               	iorwf	(dtoa@n+7)^0,w,c
  2554  000F1E  A4D8               	btfss	status,2,c
  2555  000F20  EF94  F007         	goto	u1721
  2556  000F24  EF96  F007         	goto	u1720
  2557  000F28                     u1721:
  2558  000F28  EFFE  F006         	goto	l2182
  2559  000F2C                     u1720:
  2560  000F2C  BE31               	btfsc	(dtoa@p+1)^0,7,c
  2561  000F2E  EFA3  F007         	goto	u1730
  2562  000F32  5031               	movf	(dtoa@p+1)^0,w,c
  2563  000F34  E106               	bnz	u1731
  2564  000F36  0430               	decf	dtoa@p^0,w,c
  2565  000F38  B0D8               	btfsc	status,0,c
  2566  000F3A  EFA1  F007         	goto	u1731
  2567  000F3E  EFA3  F007         	goto	u1730
  2568  000F42                     u1731:
  2569  000F42  EFFE  F006         	goto	l2182
  2570  000F46                     u1730:
  2571  000F46  BE33               	btfsc	(dtoa@w+1)^0,7,c
  2572  000F48  EFAE  F007         	goto	u1741
  2573  000F4C  5033               	movf	(dtoa@w+1)^0,w,c
  2574  000F4E  E108               	bnz	u1740
  2575  000F50  0432               	decf	dtoa@w^0,w,c
  2576  000F52  A0D8               	btfss	status,0,c
  2577  000F54  EFAE  F007         	goto	u1741
  2578  000F58  EFB0  F007         	goto	u1740
  2579  000F5C                     u1741:
  2580  000F5C  EFB8  F007         	goto	l2202
  2581  000F60                     u1740:
  2582  000F60  0100               	movlb	0	; () banked
  2583  000F62  B3C7               	btfsc	_flags& (0+255),1,b
  2584  000F64  EFB6  F007         	goto	u1751
  2585  000F68  EFB8  F007         	goto	u1750
  2586  000F6C                     u1751:
  2587  000F6C  EFFE  F006         	goto	l2182
  2588  000F70                     u1750:
  2589  000F70                     l2202:
  2590                           
  2591                           ;C:\Program Files\Microchip\xc8\v2.36\pic\sources\c99\common\doprnt.c: 321:     if (s ||
      +                           (flags & (1 << 2))) {
  2592  000F70  5034               	movf	dtoa@s^0,w,c
  2593  000F72  1035               	iorwf	(dtoa@s+1)^0,w,c
  2594  000F74  A4D8               	btfss	status,2,c
  2595  000F76  EFBF  F007         	goto	u1761
  2596  000F7A  EFC1  F007         	goto	u1760
  2597  000F7E                     u1761:
  2598  000F7E  EFC9  F007         	goto	l2206
  2599  000F82                     u1760:
  2600  000F82  0100               	movlb	0	; () banked
  2601  000F84  A5C7               	btfss	_flags& (0+255),2,b
  2602  000F86  EFC7  F007         	goto	u1771
  2603  000F8A  EFC9  F007         	goto	u1770
  2604  000F8E                     u1771:
  2605  000F8E  EFE7  F007         	goto	l2216
  2606  000F92                     u1770:
  2607  000F92                     l2206:
  2608                           
  2609                           ;C:\Program Files\Microchip\xc8\v2.36\pic\sources\c99\common\doprnt.c: 322:         --i;
  2610  000F92  063E               	decf	dtoa@i^0,f,c
  2611  000F94  A0D8               	btfss	status,0,c
  2612  000F96  063F               	decf	(dtoa@i+1)^0,f,c
  2613  000F98                     
  2614                           ;C:\Program Files\Microchip\xc8\v2.36\pic\sources\c99\common\doprnt.c: 323:         dbuf
      +                          [i] = s ? '-' : '+';
  2615  000F98  5034               	movf	dtoa@s^0,w,c
  2616  000F9A  1035               	iorwf	(dtoa@s+1)^0,w,c
  2617  000F9C  A4D8               	btfss	status,2,c
  2618  000F9E  EFD3  F007         	goto	u1781
  2619  000FA2  EFD5  F007         	goto	u1780
  2620  000FA6                     u1781:
  2621  000FA6  EFDB  F007         	goto	l2212
  2622  000FAA                     u1780:
  2623  000FAA  0E00               	movlw	0
  2624  000FAC  6E2F               	movwf	(_dtoa$1081+1)^0,c
  2625  000FAE  0E2B               	movlw	43
  2626  000FB0  6E2E               	movwf	_dtoa$1081^0,c
  2627  000FB2  EFDF  F007         	goto	l2214
  2628  000FB6                     l2212:
  2629  000FB6  0E00               	movlw	0
  2630  000FB8  6E2F               	movwf	(_dtoa$1081+1)^0,c
  2631  000FBA  0E2D               	movlw	45
  2632  000FBC  6E2E               	movwf	_dtoa$1081^0,c
  2633  000FBE                     l2214:
  2634  000FBE  0E00               	movlw	low _dbuf
  2635  000FC0  243E               	addwf	dtoa@i^0,w,c
  2636  000FC2  6ED9               	movwf	fsr2l,c
  2637  000FC4  0E01               	movlw	high _dbuf
  2638  000FC6  203F               	addwfc	(dtoa@i+1)^0,w,c
  2639  000FC8  6EDA               	movwf	fsr2h,c
  2640  000FCA  C02E  FFDF         	movff	_dtoa$1081,indf2
  2641  000FCE                     l2216:
  2642                           
  2643                           ;C:\Program Files\Microchip\xc8\v2.36\pic\sources\c99\common\doprnt.c: 327:     return p
      +                          ad(fp, &dbuf[i], w);
  2644  000FCE  C01C  F011         	movff	dtoa@fp,pad@fp
  2645  000FD2  C01D  F012         	movff	dtoa@fp+1,pad@fp+1
  2646  000FD6  0E00               	movlw	low _dbuf
  2647  000FD8  243E               	addwf	dtoa@i^0,w,c
  2648  000FDA  6E13               	movwf	pad@buf^0,c
  2649  000FDC  0E01               	movlw	high _dbuf
  2650  000FDE  203F               	addwfc	(dtoa@i+1)^0,w,c
  2651  000FE0  6E14               	movwf	(pad@buf+1)^0,c
  2652  000FE2  C032  F015         	movff	dtoa@w,pad@p
  2653  000FE6  C033  F016         	movff	dtoa@w+1,pad@p+1
  2654  000FEA  EC14  F00D         	call	_pad	;wreg free
  2655  000FEE  C011  F01C         	movff	?_pad,?_dtoa
  2656  000FF2  C012  F01D         	movff	?_pad+1,?_dtoa+1
  2657  000FF6  0012               	return		;funcret
  2658  000FF8                     __end_of_dtoa:
  2659                           	callstack 0
  2660                           
  2661 ;; *************** function _pad *****************
  2662 ;; Defined at:
  2663 ;;		line 72 in file "C:\Program Files\Microchip\xc8\v2.36\pic\sources\c99\common\doprnt.c"
  2664 ;; Parameters:    Size  Location     Type
  2665 ;;  fp              2   16[COMRAM] PTR struct _IO_FILE
  2666 ;;		 -> sprintf@f(11), 
  2667 ;;  buf             2   18[COMRAM] PTR unsigned char 
  2668 ;;		 -> dbuf(32), 
  2669 ;;  p               2   20[COMRAM] int 
  2670 ;; Auto vars:     Size  Location     Type
  2671 ;;  w               2   25[COMRAM] int 
  2672 ;;  i               2   23[COMRAM] int 
  2673 ;; Return value:  Size  Location     Type
  2674 ;;                  2   16[COMRAM] int 
  2675 ;; Registers used:
  2676 ;;		wreg, fsr1l, fsr1h, fsr2l, fsr2h, status,2, status,0, cstack
  2677 ;; Tracked objects:
  2678 ;;		On entry : 0/0
  2679 ;;		On exit  : 0/0
  2680 ;;		Unchanged: 0/0
  2681 ;; Data sizes:     COMRAM   BANK0   BANK1   BANK2   BANK3   BANK4   BANK5   BANK6   BANK7
  2682 ;;      Params:         6       0       0       0       0       0       0       0       0
  2683 ;;      Locals:         4       0       0       0       0       0       0       0       0
  2684 ;;      Temps:          1       0       0       0       0       0       0       0       0
  2685 ;;      Totals:        11       0       0       0       0       0       0       0       0
  2686 ;;Total ram usage:       11 bytes
  2687 ;; Hardware stack levels used: 1
  2688 ;; Hardware stack levels required when called: 3
  2689 ;; This function calls:
  2690 ;;		_fputc
  2691 ;;		_fputs
  2692 ;;		_strlen
  2693 ;; This function is called by:
  2694 ;;		_dtoa
  2695 ;; This function uses a non-reentrant model
  2696 ;;
  2697                           
  2698                           	psect	text7
  2699  001A28                     __ptext7:
  2700                           	callstack 0
  2701  001A28                     _pad:
  2702                           	callstack 23
  2703  001A28                     
  2704                           ;C:\Program Files\Microchip\xc8\v2.36\pic\sources\c99\common\doprnt.c: 72: static int pa
      +                          d(FILE *fp, char *buf, int p);C:\Program Files\Microchip\xc8\v2.36\pic\sources\c99\commo
      +                          n\doprnt.c: 73: {;C:\Program Files\Microchip\xc8\v2.36\pic\sources\c99\common\doprnt.c: 
      +                          74:     int i, w;;C:\Program Files\Microchip\xc8\v2.36\pic\sources\c99\common\doprnt.c: 
      +                          77:     if (flags & (1 << 0)) {
  2705  001A28  0100               	movlb	0	; () banked
  2706  001A2A  A1C7               	btfss	_flags& (0+255),0,b
  2707  001A2C  EF1A  F00D         	goto	u1591
  2708  001A30  EF1C  F00D         	goto	u1590
  2709  001A34                     u1591:
  2710  001A34  EF26  F00D         	goto	l2136
  2711  001A38                     u1590:
  2712  001A38                     
  2713                           ; BSR set to: 0
  2714                           ;C:\Program Files\Microchip\xc8\v2.36\pic\sources\c99\common\doprnt.c: 78:         fputs
      +                          ((const char *)buf, fp);
  2715  001A38  C013  F00A         	movff	pad@buf,fputs@s
  2716  001A3C  C014  F00B         	movff	pad@buf+1,fputs@s+1
  2717  001A40  C011  F00C         	movff	pad@fp,fputs@fp
  2718  001A44  C012  F00D         	movff	pad@fp+1,fputs@fp+1
  2719  001A48  EC0F  F00F         	call	_fputs	;wreg free
  2720  001A4C                     l2136:
  2721                           
  2722                           ;C:\Program Files\Microchip\xc8\v2.36\pic\sources\c99\common\doprnt.c: 82:     w = (p < 
      +                          0) ? 0 : p;
  2723  001A4C  BE16               	btfsc	(pad@p+1)^0,7,c
  2724  001A4E  EF2B  F00D         	goto	u1601
  2725  001A52  EF2D  F00D         	goto	u1600
  2726  001A56                     u1601:
  2727  001A56  EF33  F00D         	goto	l2140
  2728  001A5A                     u1600:
  2729  001A5A  C015  F01A         	movff	pad@p,pad@w
  2730  001A5E  C016  F01B         	movff	pad@p+1,pad@w+1
  2731  001A62  EF37  F00D         	goto	l967
  2732  001A66                     l2140:
  2733  001A66  0E00               	movlw	0
  2734  001A68  6E1B               	movwf	(pad@w+1)^0,c
  2735  001A6A  0E00               	movlw	0
  2736  001A6C  6E1A               	movwf	pad@w^0,c
  2737  001A6E                     l967:
  2738                           
  2739                           ;C:\Program Files\Microchip\xc8\v2.36\pic\sources\c99\common\doprnt.c: 83:     i = 0;
  2740  001A6E  0E00               	movlw	0
  2741  001A70  6E19               	movwf	(pad@i+1)^0,c
  2742  001A72  0E00               	movlw	0
  2743  001A74  6E18               	movwf	pad@i^0,c
  2744                           
  2745                           ;C:\Program Files\Microchip\xc8\v2.36\pic\sources\c99\common\doprnt.c: 84:     while (i 
      +                          < w) {
  2746  001A76  EF49  F00D         	goto	l2146
  2747  001A7A                     l2142:
  2748                           
  2749                           ;C:\Program Files\Microchip\xc8\v2.36\pic\sources\c99\common\doprnt.c: 85:         fputc
      +                          (' ', fp);
  2750  001A7A  0E00               	movlw	0
  2751  001A7C  6E02               	movwf	(fputc@c+1)^0,c
  2752  001A7E  0E20               	movlw	32
  2753  001A80  6E01               	movwf	fputc@c^0,c
  2754  001A82  C011  F003         	movff	pad@fp,fputc@fp
  2755  001A86  C012  F004         	movff	pad@fp+1,fputc@fp+1
  2756  001A8A  ECAF  F00C         	call	_fputc	;wreg free
  2757  001A8E                     
  2758                           ;C:\Program Files\Microchip\xc8\v2.36\pic\sources\c99\common\doprnt.c: 86:         ++i;
  2759  001A8E  4A18               	infsnz	pad@i^0,f,c
  2760  001A90  2A19               	incf	(pad@i+1)^0,f,c
  2761  001A92                     l2146:
  2762                           
  2763                           ;C:\Program Files\Microchip\xc8\v2.36\pic\sources\c99\common\doprnt.c: 84:     while (i 
      +                          < w) {
  2764  001A92  501A               	movf	pad@w^0,w,c
  2765  001A94  5C18               	subwf	pad@i^0,w,c
  2766  001A96  5019               	movf	(pad@i+1)^0,w,c
  2767  001A98  0A80               	xorlw	128
  2768  001A9A  6E17               	movwf	??_pad^0,c
  2769  001A9C  501B               	movf	(pad@w+1)^0,w,c
  2770  001A9E  0A80               	xorlw	128
  2771  001AA0  5817               	subwfb	??_pad^0,w,c
  2772  001AA2  A0D8               	btfss	status,0,c
  2773  001AA4  EF56  F00D         	goto	u1611
  2774  001AA8  EF58  F00D         	goto	u1610
  2775  001AAC                     u1611:
  2776  001AAC  EF3D  F00D         	goto	l2142
  2777  001AB0                     u1610:
  2778  001AB0                     
  2779                           ;C:\Program Files\Microchip\xc8\v2.36\pic\sources\c99\common\doprnt.c: 90:     if (!(fla
      +                          gs & (1 << 0))) {
  2780  001AB0  0100               	movlb	0	; () banked
  2781  001AB2  B1C7               	btfsc	_flags& (0+255),0,b
  2782  001AB4  EF5E  F00D         	goto	u1621
  2783  001AB8  EF60  F00D         	goto	u1620
  2784  001ABC                     u1621:
  2785  001ABC  EF6A  F00D         	goto	l2150
  2786  001AC0                     u1620:
  2787  001AC0                     
  2788                           ; BSR set to: 0
  2789                           ;C:\Program Files\Microchip\xc8\v2.36\pic\sources\c99\common\doprnt.c: 91:         fputs
      +                          ((const char *)buf, fp);
  2790  001AC0  C013  F00A         	movff	pad@buf,fputs@s
  2791  001AC4  C014  F00B         	movff	pad@buf+1,fputs@s+1
  2792  001AC8  C011  F00C         	movff	pad@fp,fputs@fp
  2793  001ACC  C012  F00D         	movff	pad@fp+1,fputs@fp+1
  2794  001AD0  EC0F  F00F         	call	_fputs	;wreg free
  2795  001AD4                     l2150:
  2796                           
  2797                           ;C:\Program Files\Microchip\xc8\v2.36\pic\sources\c99\common\doprnt.c: 94:     return (i
      +                          nt)(strlen(buf) + (size_t)w);
  2798  001AD4  C013  F001         	movff	pad@buf,strlen@s
  2799  001AD8  C014  F002         	movff	pad@buf+1,strlen@s+1
  2800  001ADC  EC8E  F00F         	call	_strlen	;wreg free
  2801  001AE0  501A               	movf	pad@w^0,w,c
  2802  001AE2  2401               	addwf	?_strlen^0,w,c
  2803  001AE4  6E11               	movwf	?_pad^0,c
  2804  001AE6  501B               	movf	(pad@w+1)^0,w,c
  2805  001AE8  2002               	addwfc	(?_strlen+1)^0,w,c
  2806  001AEA  6E12               	movwf	(?_pad+1)^0,c
  2807  001AEC  0012               	return		;funcret
  2808  001AEE                     __end_of_pad:
  2809                           	callstack 0
  2810                           
  2811 ;; *************** function _strlen *****************
  2812 ;; Defined at:
  2813 ;;		line 5 in file "C:\Program Files\Microchip\xc8\v2.36\pic\sources\c99\common\strlen.c"
  2814 ;; Parameters:    Size  Location     Type
  2815 ;;  s               2    0[COMRAM] PTR const unsigned char 
  2816 ;;		 -> dbuf(32), 
  2817 ;; Auto vars:     Size  Location     Type
  2818 ;;  a               2    2[COMRAM] PTR const unsigned char 
  2819 ;;		 -> dbuf(32), 
  2820 ;; Return value:  Size  Location     Type
  2821 ;;                  2    0[COMRAM] unsigned int 
  2822 ;; Registers used:
  2823 ;;		wreg, fsr2l, fsr2h, status,2, status,0
  2824 ;; Tracked objects:
  2825 ;;		On entry : 0/0
  2826 ;;		On exit  : 0/0
  2827 ;;		Unchanged: 0/0
  2828 ;; Data sizes:     COMRAM   BANK0   BANK1   BANK2   BANK3   BANK4   BANK5   BANK6   BANK7
  2829 ;;      Params:         2       0       0       0       0       0       0       0       0
  2830 ;;      Locals:         2       0       0       0       0       0       0       0       0
  2831 ;;      Temps:          0       0       0       0       0       0       0       0       0
  2832 ;;      Totals:         4       0       0       0       0       0       0       0       0
  2833 ;;Total ram usage:        4 bytes
  2834 ;; Hardware stack levels used: 1
  2835 ;; This function calls:
  2836 ;;		Nothing
  2837 ;; This function is called by:
  2838 ;;		_pad
  2839 ;; This function uses a non-reentrant model
  2840 ;;
  2841                           
  2842                           	psect	text8
  2843  001F1C                     __ptext8:
  2844                           	callstack 0
  2845  001F1C                     _strlen:
  2846                           	callstack 25
  2847  001F1C  C001  F003         	movff	strlen@s,strlen@a
  2848  001F20  C002  F004         	movff	strlen@s+1,strlen@a+1
  2849  001F24  EF96  F00F         	goto	l2046
  2850  001F28                     l2044:
  2851  001F28  4A01               	infsnz	strlen@s^0,f,c
  2852  001F2A  2A02               	incf	(strlen@s+1)^0,f,c
  2853  001F2C                     l2046:
  2854  001F2C  C001  FFD9         	movff	strlen@s,fsr2l
  2855  001F30  C002  FFDA         	movff	strlen@s+1,fsr2h
  2856  001F34  50DF               	movf	indf2,w,c
  2857  001F36  A4D8               	btfss	status,2,c
  2858  001F38  EFA0  F00F         	goto	u1451
  2859  001F3C  EFA2  F00F         	goto	u1450
  2860  001F40                     u1451:
  2861  001F40  EF94  F00F         	goto	l2044
  2862  001F44                     u1450:
  2863  001F44  5003               	movf	strlen@a^0,w,c
  2864  001F46  5C01               	subwf	strlen@s^0,w,c
  2865  001F48  6E01               	movwf	?_strlen^0,c
  2866  001F4A  5004               	movf	(strlen@a+1)^0,w,c
  2867  001F4C  5802               	subwfb	(strlen@s+1)^0,w,c
  2868  001F4E  6E02               	movwf	(?_strlen+1)^0,c
  2869  001F50  0012               	return		;funcret
  2870  001F52                     __end_of_strlen:
  2871                           	callstack 0
  2872                           
  2873 ;; *************** function _fputs *****************
  2874 ;; Defined at:
  2875 ;;		line 8 in file "C:\Program Files\Microchip\xc8\v2.36\pic\sources\c99\common\nf_fputs.c"
  2876 ;; Parameters:    Size  Location     Type
  2877 ;;  s               2    9[COMRAM] PTR const unsigned char 
  2878 ;;		 -> dbuf(32), 
  2879 ;;  fp              2   11[COMRAM] PTR struct _IO_FILE
  2880 ;;		 -> sprintf@f(11), 
  2881 ;; Auto vars:     Size  Location     Type
  2882 ;;  i               2   14[COMRAM] int 
  2883 ;;  c               1   13[COMRAM] unsigned char 
  2884 ;; Return value:  Size  Location     Type
  2885 ;;                  2    9[COMRAM] int 
  2886 ;; Registers used:
  2887 ;;		wreg, fsr1l, fsr1h, fsr2l, fsr2h, status,2, status,0, cstack
  2888 ;; Tracked objects:
  2889 ;;		On entry : 0/0
  2890 ;;		On exit  : 0/0
  2891 ;;		Unchanged: 0/0
  2892 ;; Data sizes:     COMRAM   BANK0   BANK1   BANK2   BANK3   BANK4   BANK5   BANK6   BANK7
  2893 ;;      Params:         4       0       0       0       0       0       0       0       0
  2894 ;;      Locals:         3       0       0       0       0       0       0       0       0
  2895 ;;      Temps:          0       0       0       0       0       0       0       0       0
  2896 ;;      Totals:         7       0       0       0       0       0       0       0       0
  2897 ;;Total ram usage:        7 bytes
  2898 ;; Hardware stack levels used: 1
  2899 ;; Hardware stack levels required when called: 2
  2900 ;; This function calls:
  2901 ;;		_fputc
  2902 ;; This function is called by:
  2903 ;;		_pad
  2904 ;; This function uses a non-reentrant model
  2905 ;;
  2906                           
  2907                           	psect	text9
  2908  001E1E                     __ptext9:
  2909                           	callstack 0
  2910  001E1E                     _fputs:
  2911                           	callstack 23
  2912  001E1E  0E00               	movlw	0
  2913  001E20  6E10               	movwf	(fputs@i+1)^0,c
  2914  001E22  0E00               	movlw	0
  2915  001E24  6E0F               	movwf	fputs@i^0,c
  2916  001E26  EF20  F00F         	goto	l2040
  2917  001E2A                     l2036:
  2918  001E2A  C00E  F001         	movff	fputs@c,fputc@c
  2919  001E2E  6A02               	clrf	(fputc@c+1)^0,c
  2920  001E30  C00C  F003         	movff	fputs@fp,fputc@fp
  2921  001E34  C00D  F004         	movff	fputs@fp+1,fputc@fp+1
  2922  001E38  ECAF  F00C         	call	_fputc	;wreg free
  2923  001E3C  4A0F               	infsnz	fputs@i^0,f,c
  2924  001E3E  2A10               	incf	(fputs@i+1)^0,f,c
  2925  001E40                     l2040:
  2926  001E40  500F               	movf	fputs@i^0,w,c
  2927  001E42  240A               	addwf	fputs@s^0,w,c
  2928  001E44  6ED9               	movwf	fsr2l,c
  2929  001E46  5010               	movf	(fputs@i+1)^0,w,c
  2930  001E48  200B               	addwfc	(fputs@s+1)^0,w,c
  2931  001E4A  6EDA               	movwf	fsr2h,c
  2932  001E4C  50DF               	movf	indf2,w,c
  2933  001E4E  6E0E               	movwf	fputs@c^0,c
  2934  001E50  500E               	movf	fputs@c^0,w,c
  2935  001E52  A4D8               	btfss	status,2,c
  2936  001E54  EF2E  F00F         	goto	u1441
  2937  001E58  EF30  F00F         	goto	u1440
  2938  001E5C                     u1441:
  2939  001E5C  EF15  F00F         	goto	l2036
  2940  001E60                     u1440:
  2941  001E60  0012               	return		;funcret
  2942  001E62                     __end_of_fputs:
  2943                           	callstack 0
  2944                           
  2945 ;; *************** function _fputc *****************
  2946 ;; Defined at:
  2947 ;;		line 8 in file "C:\Program Files\Microchip\xc8\v2.36\pic\sources\c99\common\nf_fputc.c"
  2948 ;; Parameters:    Size  Location     Type
  2949 ;;  c               2    0[COMRAM] int 
  2950 ;;  fp              2    2[COMRAM] PTR struct _IO_FILE
  2951 ;;		 -> sprintf@f(11), 
  2952 ;; Auto vars:     Size  Location     Type
  2953 ;;		None
  2954 ;; Return value:  Size  Location     Type
  2955 ;;                  2    0[COMRAM] int 
  2956 ;; Registers used:
  2957 ;;		wreg, fsr1l, fsr1h, fsr2l, fsr2h, status,2, status,0, cstack
  2958 ;; Tracked objects:
  2959 ;;		On entry : 0/0
  2960 ;;		On exit  : 0/0
  2961 ;;		Unchanged: 0/0
  2962 ;; Data sizes:     COMRAM   BANK0   BANK1   BANK2   BANK3   BANK4   BANK5   BANK6   BANK7
  2963 ;;      Params:         4       0       0       0       0       0       0       0       0
  2964 ;;      Locals:         0       0       0       0       0       0       0       0       0
  2965 ;;      Temps:          5       0       0       0       0       0       0       0       0
  2966 ;;      Totals:         9       0       0       0       0       0       0       0       0
  2967 ;;Total ram usage:        9 bytes
  2968 ;; Hardware stack levels used: 1
  2969 ;; Hardware stack levels required when called: 1
  2970 ;; This function calls:
  2971 ;;		_putch
  2972 ;; This function is called by:
  2973 ;;		_pad
  2974 ;;		_vfpfcnvrt
  2975 ;;		_fputs
  2976 ;; This function uses a non-reentrant model
  2977 ;;
  2978                           
  2979                           	psect	text10
  2980  00195E                     __ptext10:
  2981                           	callstack 0
  2982  00195E                     _fputc:
  2983                           	callstack 26
  2984  00195E  5003               	movf	fputc@fp^0,w,c
  2985  001960  1004               	iorwf	(fputc@fp+1)^0,w,c
  2986  001962  B4D8               	btfsc	status,2,c
  2987  001964  EFB6  F00C         	goto	u1401
  2988  001968  EFB8  F00C         	goto	u1400
  2989  00196C                     u1401:
  2990  00196C  EFC1  F00C         	goto	l2024
  2991  001970                     u1400:
  2992  001970  5003               	movf	fputc@fp^0,w,c
  2993  001972  1004               	iorwf	(fputc@fp+1)^0,w,c
  2994  001974  A4D8               	btfss	status,2,c
  2995  001976  EFBF  F00C         	goto	u1411
  2996  00197A  EFC1  F00C         	goto	u1410
  2997  00197E                     u1411:
  2998  00197E  EFC6  F00C         	goto	l2026
  2999  001982                     u1410:
  3000  001982                     l2024:
  3001  001982  5001               	movf	fputc@c^0,w,c
  3002  001984  EC1F  F010         	call	_putch
  3003  001988  EF13  F00D         	goto	l1031
  3004  00198C                     l2026:
  3005  00198C  EE20 F009          	lfsr	2,9
  3006  001990  5003               	movf	fputc@fp^0,w,c
  3007  001992  26D9               	addwf	fsr2l,f,c
  3008  001994  5004               	movf	(fputc@fp+1)^0,w,c
  3009  001996  22DA               	addwfc	fsr2h,f,c
  3010  001998  50DE               	movf	postinc2,w,c
  3011  00199A  10DE               	iorwf	postinc2,w,c
  3012  00199C  B4D8               	btfsc	status,2,c
  3013  00199E  EFD3  F00C         	goto	u1421
  3014  0019A2  EFD5  F00C         	goto	u1420
  3015  0019A6                     u1421:
  3016  0019A6  EFF0  F00C         	goto	l2030
  3017  0019AA                     u1420:
  3018  0019AA  EE20 F009          	lfsr	2,9
  3019  0019AE  5003               	movf	fputc@fp^0,w,c
  3020  0019B0  26D9               	addwf	fsr2l,f,c
  3021  0019B2  5004               	movf	(fputc@fp+1)^0,w,c
  3022  0019B4  22DA               	addwfc	fsr2h,f,c
  3023  0019B6  EE10 F003          	lfsr	1,3
  3024  0019BA  5003               	movf	fputc@fp^0,w,c
  3025  0019BC  26E1               	addwf	fsr1l,f,c
  3026  0019BE  5004               	movf	(fputc@fp+1)^0,w,c
  3027  0019C0  22E2               	addwfc	fsr1h,f,c
  3028  0019C2  50DE               	movf	postinc2,w,c
  3029  0019C4  5CE6               	subwf	postinc1,w,c
  3030  0019C6  50E6               	movf	postinc1,w,c
  3031  0019C8  0A80               	xorlw	128
  3032  0019CA  6E09               	movwf	(??_fputc+4)^0,c
  3033  0019CC  50DE               	movf	postinc2,w,c
  3034  0019CE  0A80               	xorlw	128
  3035  0019D0  5809               	subwfb	(??_fputc+4)^0,w,c
  3036  0019D2  B0D8               	btfsc	status,0,c
  3037  0019D4  EFEE  F00C         	goto	u1431
  3038  0019D8  EFF0  F00C         	goto	u1430
  3039  0019DC                     u1431:
  3040  0019DC  EF13  F00D         	goto	l1031
  3041  0019E0                     u1430:
  3042  0019E0                     l2030:
  3043  0019E0  EE20 F003          	lfsr	2,3
  3044  0019E4  5003               	movf	fputc@fp^0,w,c
  3045  0019E6  26D9               	addwf	fsr2l,f,c
  3046  0019E8  5004               	movf	(fputc@fp+1)^0,w,c
  3047  0019EA  22DA               	addwfc	fsr2h,f,c
  3048  0019EC  CFDE F005          	movff	postinc2,??_fputc
  3049  0019F0  CFDD F006          	movff	postdec2,??_fputc+1
  3050  0019F4  C003  FFD9         	movff	fputc@fp,fsr2l
  3051  0019F8  C004  FFDA         	movff	fputc@fp+1,fsr2h
  3052  0019FC  CFDE F007          	movff	postinc2,??_fputc+2
  3053  001A00  CFDD F008          	movff	postdec2,??_fputc+3
  3054  001A04  5005               	movf	??_fputc^0,w,c
  3055  001A06  2407               	addwf	(??_fputc+2)^0,w,c
  3056  001A08  6ED9               	movwf	fsr2l,c
  3057  001A0A  5006               	movf	(??_fputc+1)^0,w,c
  3058  001A0C  2008               	addwfc	(??_fputc+3)^0,w,c
  3059  001A0E  6EDA               	movwf	fsr2h,c
  3060  001A10  C001  FFDF         	movff	fputc@c,indf2
  3061  001A14  EE20 F003          	lfsr	2,3
  3062  001A18  5003               	movf	fputc@fp^0,w,c
  3063  001A1A  26D9               	addwf	fsr2l,f,c
  3064  001A1C  5004               	movf	(fputc@fp+1)^0,w,c
  3065  001A1E  22DA               	addwfc	fsr2h,f,c
  3066  001A20  2ADE               	incf	postinc2,f,c
  3067  001A22  0E00               	movlw	0
  3068  001A24  22DD               	addwfc	postdec2,f,c
  3069  001A26                     l1031:
  3070  001A26  0012               	return		;funcret
  3071  001A28                     __end_of_fputc:
  3072                           	callstack 0
  3073                           
  3074 ;; *************** function _putch *****************
  3075 ;; Defined at:
  3076 ;;		line 7 in file "C:\Program Files\Microchip\xc8\v2.36\pic\sources\c99\common\putch.c"
  3077 ;; Parameters:    Size  Location     Type
  3078 ;;  c               1    wreg     unsigned char 
  3079 ;; Auto vars:     Size  Location     Type
  3080 ;;  c               1    0[COMRAM] unsigned char 
  3081 ;; Return value:  Size  Location     Type
  3082 ;;                  1    wreg      void 
  3083 ;; Registers used:
  3084 ;;		wreg
  3085 ;; Tracked objects:
  3086 ;;		On entry : 0/0
  3087 ;;		On exit  : 0/0
  3088 ;;		Unchanged: 0/0
  3089 ;; Data sizes:     COMRAM   BANK0   BANK1   BANK2   BANK3   BANK4   BANK5   BANK6   BANK7
  3090 ;;      Params:         0       0       0       0       0       0       0       0       0
  3091 ;;      Locals:         0       0       0       0       0       0       0       0       0
  3092 ;;      Temps:          0       0       0       0       0       0       0       0       0
  3093 ;;      Totals:         0       0       0       0       0       0       0       0       0
  3094 ;;Total ram usage:        0 bytes
  3095 ;; Hardware stack levels used: 1
  3096 ;; This function calls:
  3097 ;;		Nothing
  3098 ;; This function is called by:
  3099 ;;		_fputc
  3100 ;; This function uses a non-reentrant model
  3101 ;;
  3102                           
  3103                           	psect	text11
  3104  00203E                     __ptext11:
  3105                           	callstack 0
  3106  00203E                     _putch:
  3107                           	callstack 26
  3108  00203E  0012               	return		;funcret
  3109  002040                     __end_of_putch:
  3110                           	callstack 0
  3111                           
  3112 ;; *************** function _abs *****************
  3113 ;; Defined at:
  3114 ;;		line 1 in file "C:\Program Files\Microchip\xc8\v2.36\pic\sources\c99\common\abs.c"
  3115 ;; Parameters:    Size  Location     Type
  3116 ;;  a               2   18[COMRAM] int 
  3117 ;; Auto vars:     Size  Location     Type
  3118 ;;		None
  3119 ;; Return value:  Size  Location     Type
  3120 ;;                  2   18[COMRAM] int 
  3121 ;; Registers used:
  3122 ;;		wreg, status,2, status,0
  3123 ;; Tracked objects:
  3124 ;;		On entry : 0/0
  3125 ;;		On exit  : 0/0
  3126 ;;		Unchanged: 0/0
  3127 ;; Data sizes:     COMRAM   BANK0   BANK1   BANK2   BANK3   BANK4   BANK5   BANK6   BANK7
  3128 ;;      Params:         2       0       0       0       0       0       0       0       0
  3129 ;;      Locals:         0       0       0       0       0       0       0       0       0
  3130 ;;      Temps:          2       0       0       0       0       0       0       0       0
  3131 ;;      Totals:         4       0       0       0       0       0       0       0       0
  3132 ;;Total ram usage:        4 bytes
  3133 ;; Hardware stack levels used: 1
  3134 ;; This function calls:
  3135 ;;		Nothing
  3136 ;; This function is called by:
  3137 ;;		_dtoa
  3138 ;; This function uses a non-reentrant model
  3139 ;;
  3140                           
  3141                           	psect	text12
  3142  001EA4                     __ptext12:
  3143                           	callstack 0
  3144  001EA4                     _abs:
  3145                           	callstack 26
  3146  001EA4  BE14               	btfsc	(abs@a+1)^0,7,c
  3147  001EA6  EF5F  F00F         	goto	u1630
  3148  001EAA  5014               	movf	(abs@a+1)^0,w,c
  3149  001EAC  E106               	bnz	u1631
  3150  001EAE  0413               	decf	abs@a^0,w,c
  3151  001EB0  B0D8               	btfsc	status,0,c
  3152  001EB2  EF5D  F00F         	goto	u1631
  3153  001EB6  EF5F  F00F         	goto	u1630
  3154  001EBA                     u1631:
  3155  001EBA  EF6D  F00F         	goto	l1016
  3156  001EBE                     u1630:
  3157  001EBE  C013  F015         	movff	abs@a,??_abs
  3158  001EC2  C014  F016         	movff	abs@a+1,??_abs+1
  3159  001EC6  1E15               	comf	??_abs^0,f,c
  3160  001EC8  1E16               	comf	(??_abs+1)^0,f,c
  3161  001ECA  4A15               	infsnz	??_abs^0,f,c
  3162  001ECC  2A16               	incf	(??_abs+1)^0,f,c
  3163  001ECE  C015  F013         	movff	??_abs,?_abs
  3164  001ED2  C016  F014         	movff	??_abs+1,?_abs+1
  3165  001ED6  EF71  F00F         	goto	l1019
  3166  001EDA                     l1016:
  3167  001EDA  C013  F013         	movff	abs@a,?_abs
  3168  001EDE  C014  F014         	movff	abs@a+1,?_abs+1
  3169  001EE2                     l1019:
  3170  001EE2  0012               	return		;funcret
  3171  001EE4                     __end_of_abs:
  3172                           	callstack 0
  3173                           
  3174 ;; *************** function ___aomod *****************
  3175 ;; Defined at:
  3176 ;;		line 9 in file "C:\Program Files\Microchip\xc8\v2.36\pic\sources\c99\common\aomod.c"
  3177 ;; Parameters:    Size  Location     Type
  3178 ;;  dividend        8    0[COMRAM] long long 
  3179 ;;  divisor         8    8[COMRAM] long long 
  3180 ;; Auto vars:     Size  Location     Type
  3181 ;;  sign            1   17[COMRAM] unsigned char 
  3182 ;;  counter         1   16[COMRAM] unsigned char 
  3183 ;; Return value:  Size  Location     Type
  3184 ;;                  8    0[COMRAM] long long 
  3185 ;; Registers used:
  3186 ;;		wreg, status,2, status,0
  3187 ;; Tracked objects:
  3188 ;;		On entry : 0/0
  3189 ;;		On exit  : 0/0
  3190 ;;		Unchanged: 0/0
  3191 ;; Data sizes:     COMRAM   BANK0   BANK1   BANK2   BANK3   BANK4   BANK5   BANK6   BANK7
  3192 ;;      Params:        16       0       0       0       0       0       0       0       0
  3193 ;;      Locals:         2       0       0       0       0       0       0       0       0
  3194 ;;      Temps:          0       0       0       0       0       0       0       0       0
  3195 ;;      Totals:        18       0       0       0       0       0       0       0       0
  3196 ;;Total ram usage:       18 bytes
  3197 ;; Hardware stack levels used: 1
  3198 ;; This function calls:
  3199 ;;		Nothing
  3200 ;; This function is called by:
  3201 ;;		_dtoa
  3202 ;; This function uses a non-reentrant model
  3203 ;;
  3204                           
  3205                           	psect	text13
  3206  0017FA                     __ptext13:
  3207                           	callstack 0
  3208  0017FA                     ___aomod:
  3209                           	callstack 26
  3210  0017FA  0E00               	movlw	0
  3211  0017FC  6E12               	movwf	___aomod@sign^0,c
  3212  0017FE  BE08               	btfsc	(___aomod@dividend+7)^0,7,c
  3213  001800  EF06  F00C         	goto	u1530
  3214  001804  EF04  F00C         	goto	u1531
  3215  001808                     u1531:
  3216  001808  EF18  F00C         	goto	l2104
  3217  00180C                     u1530:
  3218  00180C  1E08               	comf	(___aomod@dividend+7)^0,f,c
  3219  00180E  1E07               	comf	(___aomod@dividend+6)^0,f,c
  3220  001810  1E06               	comf	(___aomod@dividend+5)^0,f,c
  3221  001812  1E05               	comf	(___aomod@dividend+4)^0,f,c
  3222  001814  1E04               	comf	(___aomod@dividend+3)^0,f,c
  3223  001816  1E03               	comf	(___aomod@dividend+2)^0,f,c
  3224  001818  1E02               	comf	(___aomod@dividend+1)^0,f,c
  3225  00181A  6C01               	negf	___aomod@dividend^0,c
  3226  00181C  0E00               	movlw	0
  3227  00181E  2202               	addwfc	(___aomod@dividend+1)^0,f,c
  3228  001820  2203               	addwfc	(___aomod@dividend+2)^0,f,c
  3229  001822  2204               	addwfc	(___aomod@dividend+3)^0,f,c
  3230  001824  2205               	addwfc	(___aomod@dividend+4)^0,f,c
  3231  001826  2206               	addwfc	(___aomod@dividend+5)^0,f,c
  3232  001828  2207               	addwfc	(___aomod@dividend+6)^0,f,c
  3233  00182A  2208               	addwfc	(___aomod@dividend+7)^0,f,c
  3234  00182C  0E01               	movlw	1
  3235  00182E  6E12               	movwf	___aomod@sign^0,c
  3236  001830                     l2104:
  3237  001830  BE10               	btfsc	(___aomod@divisor+7)^0,7,c
  3238  001832  EF1F  F00C         	goto	u1540
  3239  001836  EF1D  F00C         	goto	u1541
  3240  00183A                     u1541:
  3241  00183A  EF2F  F00C         	goto	l2108
  3242  00183E                     u1540:
  3243  00183E  1E10               	comf	(___aomod@divisor+7)^0,f,c
  3244  001840  1E0F               	comf	(___aomod@divisor+6)^0,f,c
  3245  001842  1E0E               	comf	(___aomod@divisor+5)^0,f,c
  3246  001844  1E0D               	comf	(___aomod@divisor+4)^0,f,c
  3247  001846  1E0C               	comf	(___aomod@divisor+3)^0,f,c
  3248  001848  1E0B               	comf	(___aomod@divisor+2)^0,f,c
  3249  00184A  1E0A               	comf	(___aomod@divisor+1)^0,f,c
  3250  00184C  6C09               	negf	___aomod@divisor^0,c
  3251  00184E  0E00               	movlw	0
  3252  001850  220A               	addwfc	(___aomod@divisor+1)^0,f,c
  3253  001852  220B               	addwfc	(___aomod@divisor+2)^0,f,c
  3254  001854  220C               	addwfc	(___aomod@divisor+3)^0,f,c
  3255  001856  220D               	addwfc	(___aomod@divisor+4)^0,f,c
  3256  001858  220E               	addwfc	(___aomod@divisor+5)^0,f,c
  3257  00185A  220F               	addwfc	(___aomod@divisor+6)^0,f,c
  3258  00185C  2210               	addwfc	(___aomod@divisor+7)^0,f,c
  3259  00185E                     l2108:
  3260  00185E  5009               	movf	___aomod@divisor^0,w,c
  3261  001860  100A               	iorwf	(___aomod@divisor+1)^0,w,c
  3262  001862  100B               	iorwf	(___aomod@divisor+2)^0,w,c
  3263  001864  100C               	iorwf	(___aomod@divisor+3)^0,w,c
  3264  001866  100D               	iorwf	(___aomod@divisor+4)^0,w,c
  3265  001868  100E               	iorwf	(___aomod@divisor+5)^0,w,c
  3266  00186A  100F               	iorwf	(___aomod@divisor+6)^0,w,c
  3267  00186C  1010               	iorwf	(___aomod@divisor+7)^0,w,c
  3268  00186E  B4D8               	btfsc	status,2,c
  3269  001870  EF3C  F00C         	goto	u1551
  3270  001874  EF3E  F00C         	goto	u1550
  3271  001878                     u1551:
  3272  001878  EF86  F00C         	goto	l2124
  3273  00187C                     u1550:
  3274  00187C  0E01               	movlw	1
  3275  00187E  6E11               	movwf	___aomod@counter^0,c
  3276  001880  EF4C  F00C         	goto	l2114
  3277  001884                     l2112:
  3278  001884  90D8               	bcf	status,0,c
  3279  001886  3609               	rlcf	___aomod@divisor^0,f,c
  3280  001888  360A               	rlcf	(___aomod@divisor+1)^0,f,c
  3281  00188A  360B               	rlcf	(___aomod@divisor+2)^0,f,c
  3282  00188C  360C               	rlcf	(___aomod@divisor+3)^0,f,c
  3283  00188E  360D               	rlcf	(___aomod@divisor+4)^0,f,c
  3284  001890  360E               	rlcf	(___aomod@divisor+5)^0,f,c
  3285  001892  360F               	rlcf	(___aomod@divisor+6)^0,f,c
  3286  001894  3610               	rlcf	(___aomod@divisor+7)^0,f,c
  3287  001896  2A11               	incf	___aomod@counter^0,f,c
  3288  001898                     l2114:
  3289  001898  AE10               	btfss	(___aomod@divisor+7)^0,7,c
  3290  00189A  EF51  F00C         	goto	u1561
  3291  00189E  EF53  F00C         	goto	u1560
  3292  0018A2                     u1561:
  3293  0018A2  EF42  F00C         	goto	l2112
  3294  0018A6                     u1560:
  3295  0018A6                     l2116:
  3296  0018A6  5009               	movf	___aomod@divisor^0,w,c
  3297  0018A8  5C01               	subwf	___aomod@dividend^0,w,c
  3298  0018AA  500A               	movf	(___aomod@divisor+1)^0,w,c
  3299  0018AC  5802               	subwfb	(___aomod@dividend+1)^0,w,c
  3300  0018AE  500B               	movf	(___aomod@divisor+2)^0,w,c
  3301  0018B0  5803               	subwfb	(___aomod@dividend+2)^0,w,c
  3302  0018B2  500C               	movf	(___aomod@divisor+3)^0,w,c
  3303  0018B4  5804               	subwfb	(___aomod@dividend+3)^0,w,c
  3304  0018B6  500D               	movf	(___aomod@divisor+4)^0,w,c
  3305  0018B8  5805               	subwfb	(___aomod@dividend+4)^0,w,c
  3306  0018BA  500E               	movf	(___aomod@divisor+5)^0,w,c
  3307  0018BC  5806               	subwfb	(___aomod@dividend+5)^0,w,c
  3308  0018BE  500F               	movf	(___aomod@divisor+6)^0,w,c
  3309  0018C0  5807               	subwfb	(___aomod@dividend+6)^0,w,c
  3310  0018C2  5010               	movf	(___aomod@divisor+7)^0,w,c
  3311  0018C4  5808               	subwfb	(___aomod@dividend+7)^0,w,c
  3312  0018C6  A0D8               	btfss	status,0,c
  3313  0018C8  EF68  F00C         	goto	u1571
  3314  0018CC  EF6A  F00C         	goto	u1570
  3315  0018D0                     u1571:
  3316  0018D0  EF7A  F00C         	goto	l2120
  3317  0018D4                     u1570:
  3318  0018D4  5009               	movf	___aomod@divisor^0,w,c
  3319  0018D6  5E01               	subwf	___aomod@dividend^0,f,c
  3320  0018D8  500A               	movf	(___aomod@divisor+1)^0,w,c
  3321  0018DA  5A02               	subwfb	(___aomod@dividend+1)^0,f,c
  3322  0018DC  500B               	movf	(___aomod@divisor+2)^0,w,c
  3323  0018DE  5A03               	subwfb	(___aomod@dividend+2)^0,f,c
  3324  0018E0  500C               	movf	(___aomod@divisor+3)^0,w,c
  3325  0018E2  5A04               	subwfb	(___aomod@dividend+3)^0,f,c
  3326  0018E4  500D               	movf	(___aomod@divisor+4)^0,w,c
  3327  0018E6  5A05               	subwfb	(___aomod@dividend+4)^0,f,c
  3328  0018E8  500E               	movf	(___aomod@divisor+5)^0,w,c
  3329  0018EA  5A06               	subwfb	(___aomod@dividend+5)^0,f,c
  3330  0018EC  500F               	movf	(___aomod@divisor+6)^0,w,c
  3331  0018EE  5A07               	subwfb	(___aomod@dividend+6)^0,f,c
  3332  0018F0  5010               	movf	(___aomod@divisor+7)^0,w,c
  3333  0018F2  5A08               	subwfb	(___aomod@dividend+7)^0,f,c
  3334  0018F4                     l2120:
  3335  0018F4  90D8               	bcf	status,0,c
  3336  0018F6  3210               	rrcf	(___aomod@divisor+7)^0,f,c
  3337  0018F8  320F               	rrcf	(___aomod@divisor+6)^0,f,c
  3338  0018FA  320E               	rrcf	(___aomod@divisor+5)^0,f,c
  3339  0018FC  320D               	rrcf	(___aomod@divisor+4)^0,f,c
  3340  0018FE  320C               	rrcf	(___aomod@divisor+3)^0,f,c
  3341  001900  320B               	rrcf	(___aomod@divisor+2)^0,f,c
  3342  001902  320A               	rrcf	(___aomod@divisor+1)^0,f,c
  3343  001904  3209               	rrcf	___aomod@divisor^0,f,c
  3344  001906  2E11               	decfsz	___aomod@counter^0,f,c
  3345  001908  EF53  F00C         	goto	l2116
  3346  00190C                     l2124:
  3347  00190C  5012               	movf	___aomod@sign^0,w,c
  3348  00190E  B4D8               	btfsc	status,2,c
  3349  001910  EF8C  F00C         	goto	u1581
  3350  001914  EF8E  F00C         	goto	u1580
  3351  001918                     u1581:
  3352  001918  EF9E  F00C         	goto	l2128
  3353  00191C                     u1580:
  3354  00191C  1E08               	comf	(___aomod@dividend+7)^0,f,c
  3355  00191E  1E07               	comf	(___aomod@dividend+6)^0,f,c
  3356  001920  1E06               	comf	(___aomod@dividend+5)^0,f,c
  3357  001922  1E05               	comf	(___aomod@dividend+4)^0,f,c
  3358  001924  1E04               	comf	(___aomod@dividend+3)^0,f,c
  3359  001926  1E03               	comf	(___aomod@dividend+2)^0,f,c
  3360  001928  1E02               	comf	(___aomod@dividend+1)^0,f,c
  3361  00192A  6C01               	negf	___aomod@dividend^0,c
  3362  00192C  0E00               	movlw	0
  3363  00192E  2202               	addwfc	(___aomod@dividend+1)^0,f,c
  3364  001930  2203               	addwfc	(___aomod@dividend+2)^0,f,c
  3365  001932  2204               	addwfc	(___aomod@dividend+3)^0,f,c
  3366  001934  2205               	addwfc	(___aomod@dividend+4)^0,f,c
  3367  001936  2206               	addwfc	(___aomod@dividend+5)^0,f,c
  3368  001938  2207               	addwfc	(___aomod@dividend+6)^0,f,c
  3369  00193A  2208               	addwfc	(___aomod@dividend+7)^0,f,c
  3370  00193C                     l2128:
  3371  00193C  C001  F001         	movff	___aomod@dividend,?___aomod
  3372  001940  C002  F002         	movff	___aomod@dividend+1,?___aomod+1
  3373  001944  C003  F003         	movff	___aomod@dividend+2,?___aomod+2
  3374  001948  C004  F004         	movff	___aomod@dividend+3,?___aomod+3
  3375  00194C  C005  F005         	movff	___aomod@dividend+4,?___aomod+4
  3376  001950  C006  F006         	movff	___aomod@dividend+5,?___aomod+5
  3377  001954  C007  F007         	movff	___aomod@dividend+6,?___aomod+6
  3378  001958  C008  F008         	movff	___aomod@dividend+7,?___aomod+7
  3379  00195C  0012               	return		;funcret
  3380  00195E                     __end_of___aomod:
  3381                           	callstack 0
  3382                           
  3383 ;; *************** function ___aodiv *****************
  3384 ;; Defined at:
  3385 ;;		line 9 in file "C:\Program Files\Microchip\xc8\v2.36\pic\sources\c99\common\aodiv.c"
  3386 ;; Parameters:    Size  Location     Type
  3387 ;;  dividend        8    0[COMRAM] long long 
  3388 ;;  divisor         8    8[COMRAM] long long 
  3389 ;; Auto vars:     Size  Location     Type
  3390 ;;  quotient        8   18[COMRAM] long long 
  3391 ;;  sign            1   17[COMRAM] unsigned char 
  3392 ;;  counter         1   16[COMRAM] unsigned char 
  3393 ;; Return value:  Size  Location     Type
  3394 ;;                  8    0[COMRAM] long long 
  3395 ;; Registers used:
  3396 ;;		wreg, fsr2l, fsr2h, status,2, status,0
  3397 ;; Tracked objects:
  3398 ;;		On entry : 0/0
  3399 ;;		On exit  : 0/0
  3400 ;;		Unchanged: 0/0
  3401 ;; Data sizes:     COMRAM   BANK0   BANK1   BANK2   BANK3   BANK4   BANK5   BANK6   BANK7
  3402 ;;      Params:        16       0       0       0       0       0       0       0       0
  3403 ;;      Locals:        10       0       0       0       0       0       0       0       0
  3404 ;;      Temps:          0       0       0       0       0       0       0       0       0
  3405 ;;      Totals:        26       0       0       0       0       0       0       0       0
  3406 ;;Total ram usage:       26 bytes
  3407 ;; Hardware stack levels used: 1
  3408 ;; This function calls:
  3409 ;;		Nothing
  3410 ;; This function is called by:
  3411 ;;		_dtoa
  3412 ;; This function uses a non-reentrant model
  3413 ;;
  3414                           
  3415                           	psect	text14
  3416  001672                     __ptext14:
  3417                           	callstack 0
  3418  001672                     ___aodiv:
  3419                           	callstack 26
  3420  001672  0E00               	movlw	0
  3421  001674  6E12               	movwf	___aodiv@sign^0,c
  3422  001676  BE10               	btfsc	(___aodiv@divisor+7)^0,7,c
  3423  001678  EF42  F00B         	goto	u1460
  3424  00167C  EF40  F00B         	goto	u1461
  3425  001680                     u1461:
  3426  001680  EF54  F00B         	goto	l2060
  3427  001684                     u1460:
  3428  001684  1E10               	comf	(___aodiv@divisor+7)^0,f,c
  3429  001686  1E0F               	comf	(___aodiv@divisor+6)^0,f,c
  3430  001688  1E0E               	comf	(___aodiv@divisor+5)^0,f,c
  3431  00168A  1E0D               	comf	(___aodiv@divisor+4)^0,f,c
  3432  00168C  1E0C               	comf	(___aodiv@divisor+3)^0,f,c
  3433  00168E  1E0B               	comf	(___aodiv@divisor+2)^0,f,c
  3434  001690  1E0A               	comf	(___aodiv@divisor+1)^0,f,c
  3435  001692  6C09               	negf	___aodiv@divisor^0,c
  3436  001694  0E00               	movlw	0
  3437  001696  220A               	addwfc	(___aodiv@divisor+1)^0,f,c
  3438  001698  220B               	addwfc	(___aodiv@divisor+2)^0,f,c
  3439  00169A  220C               	addwfc	(___aodiv@divisor+3)^0,f,c
  3440  00169C  220D               	addwfc	(___aodiv@divisor+4)^0,f,c
  3441  00169E  220E               	addwfc	(___aodiv@divisor+5)^0,f,c
  3442  0016A0  220F               	addwfc	(___aodiv@divisor+6)^0,f,c
  3443  0016A2  2210               	addwfc	(___aodiv@divisor+7)^0,f,c
  3444  0016A4  0E01               	movlw	1
  3445  0016A6  6E12               	movwf	___aodiv@sign^0,c
  3446  0016A8                     l2060:
  3447  0016A8  BE08               	btfsc	(___aodiv@dividend+7)^0,7,c
  3448  0016AA  EF5B  F00B         	goto	u1470
  3449  0016AE  EF59  F00B         	goto	u1471
  3450  0016B2                     u1471:
  3451  0016B2  EF6D  F00B         	goto	l2066
  3452  0016B6                     u1470:
  3453  0016B6  1E08               	comf	(___aodiv@dividend+7)^0,f,c
  3454  0016B8  1E07               	comf	(___aodiv@dividend+6)^0,f,c
  3455  0016BA  1E06               	comf	(___aodiv@dividend+5)^0,f,c
  3456  0016BC  1E05               	comf	(___aodiv@dividend+4)^0,f,c
  3457  0016BE  1E04               	comf	(___aodiv@dividend+3)^0,f,c
  3458  0016C0  1E03               	comf	(___aodiv@dividend+2)^0,f,c
  3459  0016C2  1E02               	comf	(___aodiv@dividend+1)^0,f,c
  3460  0016C4  6C01               	negf	___aodiv@dividend^0,c
  3461  0016C6  0E00               	movlw	0
  3462  0016C8  2202               	addwfc	(___aodiv@dividend+1)^0,f,c
  3463  0016CA  2203               	addwfc	(___aodiv@dividend+2)^0,f,c
  3464  0016CC  2204               	addwfc	(___aodiv@dividend+3)^0,f,c
  3465  0016CE  2205               	addwfc	(___aodiv@dividend+4)^0,f,c
  3466  0016D0  2206               	addwfc	(___aodiv@dividend+5)^0,f,c
  3467  0016D2  2207               	addwfc	(___aodiv@dividend+6)^0,f,c
  3468  0016D4  2208               	addwfc	(___aodiv@dividend+7)^0,f,c
  3469  0016D6  0E01               	movlw	1
  3470  0016D8  1A12               	xorwf	___aodiv@sign^0,f,c
  3471  0016DA                     l2066:
  3472  0016DA  EE20  F013         	lfsr	2,___aodiv@quotient
  3473  0016DE  0E07               	movlw	7
  3474  0016E0                     u1481:
  3475  0016E0  6ADE               	clrf	postinc2,c
  3476  0016E2  06E8               	decf	wreg,f,c
  3477  0016E4  E2FD               	bc	u1481
  3478  0016E6  5009               	movf	___aodiv@divisor^0,w,c
  3479  0016E8  100A               	iorwf	(___aodiv@divisor+1)^0,w,c
  3480  0016EA  100B               	iorwf	(___aodiv@divisor+2)^0,w,c
  3481  0016EC  100C               	iorwf	(___aodiv@divisor+3)^0,w,c
  3482  0016EE  100D               	iorwf	(___aodiv@divisor+4)^0,w,c
  3483  0016F0  100E               	iorwf	(___aodiv@divisor+5)^0,w,c
  3484  0016F2  100F               	iorwf	(___aodiv@divisor+6)^0,w,c
  3485  0016F4  1010               	iorwf	(___aodiv@divisor+7)^0,w,c
  3486  0016F6  B4D8               	btfsc	status,2,c
  3487  0016F8  EF80  F00B         	goto	u1491
  3488  0016FC  EF82  F00B         	goto	u1490
  3489  001700                     u1491:
  3490  001700  EFD4  F00B         	goto	l2088
  3491  001704                     u1490:
  3492  001704  0E01               	movlw	1
  3493  001706  6E11               	movwf	___aodiv@counter^0,c
  3494  001708  EF90  F00B         	goto	l2074
  3495  00170C                     l2072:
  3496  00170C  90D8               	bcf	status,0,c
  3497  00170E  3609               	rlcf	___aodiv@divisor^0,f,c
  3498  001710  360A               	rlcf	(___aodiv@divisor+1)^0,f,c
  3499  001712  360B               	rlcf	(___aodiv@divisor+2)^0,f,c
  3500  001714  360C               	rlcf	(___aodiv@divisor+3)^0,f,c
  3501  001716  360D               	rlcf	(___aodiv@divisor+4)^0,f,c
  3502  001718  360E               	rlcf	(___aodiv@divisor+5)^0,f,c
  3503  00171A  360F               	rlcf	(___aodiv@divisor+6)^0,f,c
  3504  00171C  3610               	rlcf	(___aodiv@divisor+7)^0,f,c
  3505  00171E  2A11               	incf	___aodiv@counter^0,f,c
  3506  001720                     l2074:
  3507  001720  AE10               	btfss	(___aodiv@divisor+7)^0,7,c
  3508  001722  EF95  F00B         	goto	u1501
  3509  001726  EF97  F00B         	goto	u1500
  3510  00172A                     u1501:
  3511  00172A  EF86  F00B         	goto	l2072
  3512  00172E                     u1500:
  3513  00172E                     l2076:
  3514  00172E  90D8               	bcf	status,0,c
  3515  001730  3613               	rlcf	___aodiv@quotient^0,f,c
  3516  001732  3614               	rlcf	(___aodiv@quotient+1)^0,f,c
  3517  001734  3615               	rlcf	(___aodiv@quotient+2)^0,f,c
  3518  001736  3616               	rlcf	(___aodiv@quotient+3)^0,f,c
  3519  001738  3617               	rlcf	(___aodiv@quotient+4)^0,f,c
  3520  00173A  3618               	rlcf	(___aodiv@quotient+5)^0,f,c
  3521  00173C  3619               	rlcf	(___aodiv@quotient+6)^0,f,c
  3522  00173E  361A               	rlcf	(___aodiv@quotient+7)^0,f,c
  3523  001740  5009               	movf	___aodiv@divisor^0,w,c
  3524  001742  5C01               	subwf	___aodiv@dividend^0,w,c
  3525  001744  500A               	movf	(___aodiv@divisor+1)^0,w,c
  3526  001746  5802               	subwfb	(___aodiv@dividend+1)^0,w,c
  3527  001748  500B               	movf	(___aodiv@divisor+2)^0,w,c
  3528  00174A  5803               	subwfb	(___aodiv@dividend+2)^0,w,c
  3529  00174C  500C               	movf	(___aodiv@divisor+3)^0,w,c
  3530  00174E  5804               	subwfb	(___aodiv@dividend+3)^0,w,c
  3531  001750  500D               	movf	(___aodiv@divisor+4)^0,w,c
  3532  001752  5805               	subwfb	(___aodiv@dividend+4)^0,w,c
  3533  001754  500E               	movf	(___aodiv@divisor+5)^0,w,c
  3534  001756  5806               	subwfb	(___aodiv@dividend+5)^0,w,c
  3535  001758  500F               	movf	(___aodiv@divisor+6)^0,w,c
  3536  00175A  5807               	subwfb	(___aodiv@dividend+6)^0,w,c
  3537  00175C  5010               	movf	(___aodiv@divisor+7)^0,w,c
  3538  00175E  5808               	subwfb	(___aodiv@dividend+7)^0,w,c
  3539  001760  A0D8               	btfss	status,0,c
  3540  001762  EFB5  F00B         	goto	u1511
  3541  001766  EFB7  F00B         	goto	u1510
  3542  00176A                     u1511:
  3543  00176A  EFC8  F00B         	goto	l2084
  3544  00176E                     u1510:
  3545  00176E  5009               	movf	___aodiv@divisor^0,w,c
  3546  001770  5E01               	subwf	___aodiv@dividend^0,f,c
  3547  001772  500A               	movf	(___aodiv@divisor+1)^0,w,c
  3548  001774  5A02               	subwfb	(___aodiv@dividend+1)^0,f,c
  3549  001776  500B               	movf	(___aodiv@divisor+2)^0,w,c
  3550  001778  5A03               	subwfb	(___aodiv@dividend+2)^0,f,c
  3551  00177A  500C               	movf	(___aodiv@divisor+3)^0,w,c
  3552  00177C  5A04               	subwfb	(___aodiv@dividend+3)^0,f,c
  3553  00177E  500D               	movf	(___aodiv@divisor+4)^0,w,c
  3554  001780  5A05               	subwfb	(___aodiv@dividend+4)^0,f,c
  3555  001782  500E               	movf	(___aodiv@divisor+5)^0,w,c
  3556  001784  5A06               	subwfb	(___aodiv@dividend+5)^0,f,c
  3557  001786  500F               	movf	(___aodiv@divisor+6)^0,w,c
  3558  001788  5A07               	subwfb	(___aodiv@dividend+6)^0,f,c
  3559  00178A  5010               	movf	(___aodiv@divisor+7)^0,w,c
  3560  00178C  5A08               	subwfb	(___aodiv@dividend+7)^0,f,c
  3561  00178E  8013               	bsf	___aodiv@quotient^0,0,c
  3562  001790                     l2084:
  3563  001790  90D8               	bcf	status,0,c
  3564  001792  3210               	rrcf	(___aodiv@divisor+7)^0,f,c
  3565  001794  320F               	rrcf	(___aodiv@divisor+6)^0,f,c
  3566  001796  320E               	rrcf	(___aodiv@divisor+5)^0,f,c
  3567  001798  320D               	rrcf	(___aodiv@divisor+4)^0,f,c
  3568  00179A  320C               	rrcf	(___aodiv@divisor+3)^0,f,c
  3569  00179C  320B               	rrcf	(___aodiv@divisor+2)^0,f,c
  3570  00179E  320A               	rrcf	(___aodiv@divisor+1)^0,f,c
  3571  0017A0  3209               	rrcf	___aodiv@divisor^0,f,c
  3572  0017A2  2E11               	decfsz	___aodiv@counter^0,f,c
  3573  0017A4  EF97  F00B         	goto	l2076
  3574  0017A8                     l2088:
  3575  0017A8  5012               	movf	___aodiv@sign^0,w,c
  3576  0017AA  B4D8               	btfsc	status,2,c
  3577  0017AC  EFDA  F00B         	goto	u1521
  3578  0017B0  EFDC  F00B         	goto	u1520
  3579  0017B4                     u1521:
  3580  0017B4  EFEC  F00B         	goto	l2092
  3581  0017B8                     u1520:
  3582  0017B8  1E1A               	comf	(___aodiv@quotient+7)^0,f,c
  3583  0017BA  1E19               	comf	(___aodiv@quotient+6)^0,f,c
  3584  0017BC  1E18               	comf	(___aodiv@quotient+5)^0,f,c
  3585  0017BE  1E17               	comf	(___aodiv@quotient+4)^0,f,c
  3586  0017C0  1E16               	comf	(___aodiv@quotient+3)^0,f,c
  3587  0017C2  1E15               	comf	(___aodiv@quotient+2)^0,f,c
  3588  0017C4  1E14               	comf	(___aodiv@quotient+1)^0,f,c
  3589  0017C6  6C13               	negf	___aodiv@quotient^0,c
  3590  0017C8  0E00               	movlw	0
  3591  0017CA  2214               	addwfc	(___aodiv@quotient+1)^0,f,c
  3592  0017CC  2215               	addwfc	(___aodiv@quotient+2)^0,f,c
  3593  0017CE  2216               	addwfc	(___aodiv@quotient+3)^0,f,c
  3594  0017D0  2217               	addwfc	(___aodiv@quotient+4)^0,f,c
  3595  0017D2  2218               	addwfc	(___aodiv@quotient+5)^0,f,c
  3596  0017D4  2219               	addwfc	(___aodiv@quotient+6)^0,f,c
  3597  0017D6  221A               	addwfc	(___aodiv@quotient+7)^0,f,c
  3598  0017D8                     l2092:
  3599  0017D8  C013  F001         	movff	___aodiv@quotient,?___aodiv
  3600  0017DC  C014  F002         	movff	___aodiv@quotient+1,?___aodiv+1
  3601  0017E0  C015  F003         	movff	___aodiv@quotient+2,?___aodiv+2
  3602  0017E4  C016  F004         	movff	___aodiv@quotient+3,?___aodiv+3
  3603  0017E8  C017  F005         	movff	___aodiv@quotient+4,?___aodiv+4
  3604  0017EC  C018  F006         	movff	___aodiv@quotient+5,?___aodiv+5
  3605  0017F0  C019  F007         	movff	___aodiv@quotient+6,?___aodiv+6
  3606  0017F4  C01A  F008         	movff	___aodiv@quotient+7,?___aodiv+7
  3607  0017F8  0012               	return		;funcret
  3608  0017FA                     __end_of___aodiv:
  3609                           	callstack 0
  3610                           
  3611 ;; *************** function _lcd_putc *****************
  3612 ;; Defined at:
  3613 ;;		line 134 in file "./LCD_16x2_Library.h"
  3614 ;; Parameters:    Size  Location     Type
  3615 ;;  a               2    4[COMRAM] PTR unsigned char 
  3616 ;;		 -> STR_16(13), dht11@value(10), STR_12(13), main@tiempo(30), 
  3617 ;;		 -> STR_10(15), STR_9(17), STR_8(16), STR_7(17), 
  3618 ;;		 -> STR_6(17), STR_5(17), STR_4(17), STR_3(17), 
  3619 ;;		 -> STR_2(15), STR_1(16), 
  3620 ;; Auto vars:     Size  Location     Type
  3621 ;;  i               2    8[COMRAM] int 
  3622 ;; Return value:  Size  Location     Type
  3623 ;;                  1    wreg      void 
  3624 ;; Registers used:
  3625 ;;		wreg, fsr1l, fsr1h, status,2, status,0, tblptrl, tblptrh, tblptru, cstack
  3626 ;; Tracked objects:
  3627 ;;		On entry : 0/0
  3628 ;;		On exit  : 0/0
  3629 ;;		Unchanged: 0/0
  3630 ;; Data sizes:     COMRAM   BANK0   BANK1   BANK2   BANK3   BANK4   BANK5   BANK6   BANK7
  3631 ;;      Params:         2       0       0       0       0       0       0       0       0
  3632 ;;      Locals:         2       0       0       0       0       0       0       0       0
  3633 ;;      Temps:          2       0       0       0       0       0       0       0       0
  3634 ;;      Totals:         6       0       0       0       0       0       0       0       0
  3635 ;;Total ram usage:        6 bytes
  3636 ;; Hardware stack levels used: 1
  3637 ;; Hardware stack levels required when called: 2
  3638 ;; This function calls:
  3639 ;;		_lcd_write_char
  3640 ;; This function is called by:
  3641 ;;		_main
  3642 ;;		_dht11
  3643 ;; This function uses a non-reentrant model
  3644 ;;
  3645                           
  3646                           	psect	text15
  3647  001AEE                     __ptext15:
  3648                           	callstack 0
  3649  001AEE                     _lcd_putc:
  3650                           	callstack 28
  3651  001AEE                     
  3652                           ;./LCD_16x2_Library.h: 134: void lcd_putc(char *a);./LCD_16x2_Library.h: 135: {;./LCD_16
      +                          x2_Library.h: 136:    int i;;./LCD_16x2_Library.h: 137:    for(i=0;a[i]!='\0';i++)
  3653  001AEE  0E00               	movlw	0
  3654  001AF0  6E0A               	movwf	(lcd_putc@i+1)^0,c
  3655  001AF2  0E00               	movlw	0
  3656  001AF4  6E09               	movwf	lcd_putc@i^0,c
  3657  001AF6  EF97  F00D         	goto	l2366
  3658  001AFA                     l2362:
  3659                           
  3660                           ;./LCD_16x2_Library.h: 138:       lcd_write_char(a[i]);
  3661  001AFA  5009               	movf	lcd_putc@i^0,w,c
  3662  001AFC  2405               	addwf	lcd_putc@a^0,w,c
  3663  001AFE  6E07               	movwf	??_lcd_putc^0,c
  3664  001B00  500A               	movf	(lcd_putc@i+1)^0,w,c
  3665  001B02  2006               	addwfc	(lcd_putc@a+1)^0,w,c
  3666  001B04  6E08               	movwf	(??_lcd_putc+1)^0,c
  3667  001B06  C007  FFF6         	movff	??_lcd_putc,tblptrl
  3668  001B0A  C008  FFF7         	movff	??_lcd_putc+1,tblptrh
  3669  001B0E  6AF8               	clrf	tblptru,c
  3670  001B10  0E07               	movlw	(high __ramtop+-1)
  3671  001B12  64F7               	cpfsgt	tblptrh,c
  3672  001B14  D003               	bra	u1907
  3673  001B16  0008               	tblrd		*
  3674  001B18  50F5               	movf	tablat,w,c
  3675  001B1A  D005               	bra	u1900
  3676  001B1C                     u1907:
  3677  001B1C  CFF6 FFE1          	movff	tblptrl,fsr1l
  3678  001B20  CFF7 FFE2          	movff	tblptrh,fsr1h
  3679  001B24  50E7               	movf	indf1,w,c
  3680  001B26                     u1900:
  3681  001B26  EC72  F00F         	call	_lcd_write_char
  3682  001B2A  4A09               	infsnz	lcd_putc@i^0,f,c
  3683  001B2C  2A0A               	incf	(lcd_putc@i+1)^0,f,c
  3684  001B2E                     l2366:
  3685  001B2E  5009               	movf	lcd_putc@i^0,w,c
  3686  001B30  2405               	addwf	lcd_putc@a^0,w,c
  3687  001B32  6E07               	movwf	??_lcd_putc^0,c
  3688  001B34  500A               	movf	(lcd_putc@i+1)^0,w,c
  3689  001B36  2006               	addwfc	(lcd_putc@a+1)^0,w,c
  3690  001B38  6E08               	movwf	(??_lcd_putc+1)^0,c
  3691  001B3A  C007  FFF6         	movff	??_lcd_putc,tblptrl
  3692  001B3E  C008  FFF7         	movff	??_lcd_putc+1,tblptrh
  3693  001B42  6AF8               	clrf	tblptru,c
  3694  001B44  0E07               	movlw	(high __ramtop+-1)
  3695  001B46  64F7               	cpfsgt	tblptrh,c
  3696  001B48  D003               	bra	u1917
  3697  001B4A  0008               	tblrd		*
  3698  001B4C  50F5               	movf	tablat,w,c
  3699  001B4E  D005               	bra	u1910
  3700  001B50                     u1917:
  3701  001B50  CFF6 FFE1          	movff	tblptrl,fsr1l
  3702  001B54  CFF7 FFE2          	movff	tblptrh,fsr1h
  3703  001B58  50E7               	movf	indf1,w,c
  3704  001B5A                     u1910:
  3705  001B5A  0900               	iorlw	0
  3706  001B5C  A4D8               	btfss	status,2,c
  3707  001B5E  EFB3  F00D         	goto	u1921
  3708  001B62  EFB5  F00D         	goto	u1920
  3709  001B66                     u1921:
  3710  001B66  EF7D  F00D         	goto	l2362
  3711  001B6A                     u1920:
  3712  001B6A  0012               	return		;funcret
  3713  001B6C                     __end_of_lcd_putc:
  3714                           	callstack 0
  3715                           
  3716 ;; *************** function _lcd_write_char *****************
  3717 ;; Defined at:
  3718 ;;		line 116 in file "./LCD_16x2_Library.h"
  3719 ;; Parameters:    Size  Location     Type
  3720 ;;  a               1    wreg     unsigned char 
  3721 ;; Auto vars:     Size  Location     Type
  3722 ;;  a               1    3[COMRAM] unsigned char 
  3723 ;;  y               1    2[COMRAM] unsigned char 
  3724 ;;  temp            1    1[COMRAM] unsigned char 
  3725 ;; Return value:  Size  Location     Type
  3726 ;;                  1    wreg      void 
  3727 ;; Registers used:
  3728 ;;		wreg, status,2, status,0, cstack
  3729 ;; Tracked objects:
  3730 ;;		On entry : 0/0
  3731 ;;		On exit  : 0/0
  3732 ;;		Unchanged: 0/0
  3733 ;; Data sizes:     COMRAM   BANK0   BANK1   BANK2   BANK3   BANK4   BANK5   BANK6   BANK7
  3734 ;;      Params:         0       0       0       0       0       0       0       0       0
  3735 ;;      Locals:         3       0       0       0       0       0       0       0       0
  3736 ;;      Temps:          0       0       0       0       0       0       0       0       0
  3737 ;;      Totals:         3       0       0       0       0       0       0       0       0
  3738 ;;Total ram usage:        3 bytes
  3739 ;; Hardware stack levels used: 1
  3740 ;; Hardware stack levels required when called: 1
  3741 ;; This function calls:
  3742 ;;		_Lcd_Port
  3743 ;; This function is called by:
  3744 ;;		_lcd_putc
  3745 ;;		_main
  3746 ;; This function uses a non-reentrant model
  3747 ;;
  3748                           
  3749                           	psect	text16
  3750  001EE4                     __ptext16:
  3751                           	callstack 0
  3752  001EE4                     _lcd_write_char:
  3753                           	callstack 29
  3754                           
  3755                           ;incstack = 0
  3756                           ;lcd_write_char@a stored from wreg
  3757  001EE4  6E04               	movwf	lcd_write_char@a^0,c
  3758  001EE6                     
  3759                           ;./LCD_16x2_Library.h: 116: void lcd_write_char(char a);./LCD_16x2_Library.h: 117: {;./L
      +                          CD_16x2_Library.h: 118:    char temp,y;;./LCD_16x2_Library.h: 119:    temp = a&0x0F;
  3760  001EE6  5004               	movf	lcd_write_char@a^0,w,c
  3761  001EE8  0B0F               	andlw	15
  3762  001EEA  6E02               	movwf	lcd_write_char@temp^0,c
  3763                           
  3764                           ;./LCD_16x2_Library.h: 120:    y = a&0xF0;
  3765  001EEC  5004               	movf	lcd_write_char@a^0,w,c
  3766  001EEE  0BF0               	andlw	240
  3767  001EF0  6E03               	movwf	lcd_write_char@y^0,c
  3768  001EF2                     
  3769                           ;./LCD_16x2_Library.h: 121:    RD2 = 1;
  3770  001EF2  8483               	bsf	3971,2,c	;volatile
  3771  001EF4                     
  3772                           ;./LCD_16x2_Library.h: 122:    Lcd_Port(y>>4);
  3773  001EF4  3803               	swapf	lcd_write_char@y^0,w,c
  3774  001EF6  0B0F               	andlw	15
  3775  001EF8  EC8A  F00E         	call	_Lcd_Port
  3776  001EFC                     
  3777                           ;./LCD_16x2_Library.h: 123:    RD3 = 1;
  3778  001EFC  8683               	bsf	3971,3,c	;volatile
  3779  001EFE                     
  3780                           ;./LCD_16x2_Library.h: 124:    _delay((unsigned long)((40)*(8000000/4000000.0)));
  3781  001EFE  0E1A               	movlw	26
  3782  001F00                     u2877:
  3783  001F00  2EE8               	decfsz	wreg,f,c
  3784  001F02  D7FE               	bra	u2877
  3785  001F04  D000               	nop2	
  3786  001F06                     
  3787                           ;./LCD_16x2_Library.h: 125:    RD3 = 0;
  3788  001F06  9683               	bcf	3971,3,c	;volatile
  3789  001F08                     
  3790                           ;./LCD_16x2_Library.h: 126:    Lcd_Port(temp);
  3791  001F08  5002               	movf	lcd_write_char@temp^0,w,c
  3792  001F0A  EC8A  F00E         	call	_Lcd_Port
  3793  001F0E                     
  3794                           ;./LCD_16x2_Library.h: 127:    RD3 = 1;
  3795  001F0E  8683               	bsf	3971,3,c	;volatile
  3796  001F10                     
  3797                           ;./LCD_16x2_Library.h: 128:    _delay((unsigned long)((40)*(8000000/4000000.0)));
  3798  001F10  0E1A               	movlw	26
  3799  001F12                     u2887:
  3800  001F12  2EE8               	decfsz	wreg,f,c
  3801  001F14  D7FE               	bra	u2887
  3802  001F16  D000               	nop2	
  3803  001F18                     
  3804                           ;./LCD_16x2_Library.h: 129:    RD3 = 0;
  3805  001F18  9683               	bcf	3971,3,c	;volatile
  3806  001F1A  0012               	return		;funcret
  3807  001F1C                     __end_of_lcd_write_char:
  3808                           	callstack 0
  3809                           
  3810 ;; *************** function _lcd_init *****************
  3811 ;; Defined at:
  3812 ;;		line 94 in file "./LCD_16x2_Library.h"
  3813 ;; Parameters:    Size  Location     Type
  3814 ;;		None
  3815 ;; Auto vars:     Size  Location     Type
  3816 ;;		None
  3817 ;; Return value:  Size  Location     Type
  3818 ;;                  1    wreg      void 
  3819 ;; Registers used:
  3820 ;;		wreg, status,2, cstack
  3821 ;; Tracked objects:
  3822 ;;		On entry : 0/0
  3823 ;;		On exit  : 0/0
  3824 ;;		Unchanged: 0/0
  3825 ;; Data sizes:     COMRAM   BANK0   BANK1   BANK2   BANK3   BANK4   BANK5   BANK6   BANK7
  3826 ;;      Params:         0       0       0       0       0       0       0       0       0
  3827 ;;      Locals:         0       0       0       0       0       0       0       0       0
  3828 ;;      Temps:          1       0       0       0       0       0       0       0       0
  3829 ;;      Totals:         1       0       0       0       0       0       0       0       0
  3830 ;;Total ram usage:        1 bytes
  3831 ;; Hardware stack levels used: 1
  3832 ;; Hardware stack levels required when called: 2
  3833 ;; This function calls:
  3834 ;;		_Lcd_Cmd
  3835 ;;		_Lcd_Port
  3836 ;; This function is called by:
  3837 ;;		_main
  3838 ;;		_dht11
  3839 ;; This function uses a non-reentrant model
  3840 ;;
  3841                           
  3842                           	psect	text17
  3843  001B6C                     __ptext17:
  3844                           	callstack 0
  3845  001B6C                     _lcd_init:
  3846                           	callstack 28
  3847  001B6C                     
  3848                           ;./LCD_16x2_Library.h: 96:   TRISD=0x00;
  3849  001B6C  0E00               	movlw	0
  3850  001B6E  6E95               	movwf	149,c	;volatile
  3851  001B70                     
  3852                           ;./LCD_16x2_Library.h: 97:   Lcd_Port(0x00);
  3853  001B70  0E00               	movlw	0
  3854  001B72  EC8A  F00E         	call	_Lcd_Port
  3855  001B76                     
  3856                           ;./LCD_16x2_Library.h: 98:    _delay((unsigned long)((20)*(8000000/4000.0)));
  3857  001B76  0E34               	movlw	52
  3858  001B78  6E04               	movwf	??_lcd_init^0,c
  3859  001B7A  0EF2               	movlw	242
  3860  001B7C                     u2897:
  3861  001B7C  2EE8               	decfsz	wreg,f,c
  3862  001B7E  D7FE               	bra	u2897
  3863  001B80  2E04               	decfsz	??_lcd_init^0,f,c
  3864  001B82  D7FC               	bra	u2897
  3865                           
  3866                           ;./LCD_16x2_Library.h: 99:   Lcd_Cmd(0x03);
  3867  001B84  0E03               	movlw	3
  3868  001B86  ECD2  F00F         	call	_Lcd_Cmd
  3869  001B8A                     
  3870                           ;./LCD_16x2_Library.h: 100:    _delay((unsigned long)((5)*(8000000/4000.0)));
  3871  001B8A  0E0D               	movlw	13
  3872  001B8C  6E04               	movwf	??_lcd_init^0,c
  3873  001B8E  0EFC               	movlw	252
  3874  001B90                     u2907:
  3875  001B90  2EE8               	decfsz	wreg,f,c
  3876  001B92  D7FE               	bra	u2907
  3877  001B94  2E04               	decfsz	??_lcd_init^0,f,c
  3878  001B96  D7FC               	bra	u2907
  3879  001B98                     
  3880                           ;./LCD_16x2_Library.h: 101:   Lcd_Cmd(0x03);
  3881  001B98  0E03               	movlw	3
  3882  001B9A  ECD2  F00F         	call	_Lcd_Cmd
  3883                           
  3884                           ;./LCD_16x2_Library.h: 102:    _delay((unsigned long)((11)*(8000000/4000.0)));
  3885  001B9E  0E1D               	movlw	29
  3886  001BA0  6E04               	movwf	??_lcd_init^0,c
  3887  001BA2  0E91               	movlw	145
  3888  001BA4                     u2917:
  3889  001BA4  2EE8               	decfsz	wreg,f,c
  3890  001BA6  D7FE               	bra	u2917
  3891  001BA8  2E04               	decfsz	??_lcd_init^0,f,c
  3892  001BAA  D7FC               	bra	u2917
  3893  001BAC  F000               	nop	
  3894  001BAE                     
  3895                           ;./LCD_16x2_Library.h: 103:   Lcd_Cmd(0x03);
  3896  001BAE  0E03               	movlw	3
  3897  001BB0  ECD2  F00F         	call	_Lcd_Cmd
  3898  001BB4                     
  3899                           ;./LCD_16x2_Library.h: 105:   Lcd_Cmd(0x02);
  3900  001BB4  0E02               	movlw	2
  3901  001BB6  ECD2  F00F         	call	_Lcd_Cmd
  3902  001BBA                     
  3903                           ;./LCD_16x2_Library.h: 106:   Lcd_Cmd(0x02);
  3904  001BBA  0E02               	movlw	2
  3905  001BBC  ECD2  F00F         	call	_Lcd_Cmd
  3906  001BC0                     
  3907                           ;./LCD_16x2_Library.h: 107:   Lcd_Cmd(0x08);
  3908  001BC0  0E08               	movlw	8
  3909  001BC2  ECD2  F00F         	call	_Lcd_Cmd
  3910  001BC6                     
  3911                           ;./LCD_16x2_Library.h: 108:   Lcd_Cmd(0x00);
  3912  001BC6  0E00               	movlw	0
  3913  001BC8  ECD2  F00F         	call	_Lcd_Cmd
  3914  001BCC                     
  3915                           ;./LCD_16x2_Library.h: 109:   Lcd_Cmd(0x0C);
  3916  001BCC  0E0C               	movlw	12
  3917  001BCE  ECD2  F00F         	call	_Lcd_Cmd
  3918  001BD2                     
  3919                           ;./LCD_16x2_Library.h: 110:   Lcd_Cmd(0x00);
  3920  001BD2  0E00               	movlw	0
  3921  001BD4  ECD2  F00F         	call	_Lcd_Cmd
  3922  001BD8                     
  3923                           ;./LCD_16x2_Library.h: 111:   Lcd_Cmd(0x06);
  3924  001BD8  0E06               	movlw	6
  3925  001BDA  ECD2  F00F         	call	_Lcd_Cmd
  3926  001BDE  0012               	return		;funcret
  3927  001BE0                     __end_of_lcd_init:
  3928                           	callstack 0
  3929                           
  3930 ;; *************** function _lcd_gotoxy *****************
  3931 ;; Defined at:
  3932 ;;		line 71 in file "./LCD_16x2_Library.h"
  3933 ;; Parameters:    Size  Location     Type
  3934 ;;  a               1    wreg     unsigned char 
  3935 ;;  b               1    3[COMRAM] unsigned char 
  3936 ;; Auto vars:     Size  Location     Type
  3937 ;;  a               1    4[COMRAM] unsigned char 
  3938 ;;  temp            1    7[COMRAM] unsigned char 
  3939 ;;  y               1    6[COMRAM] unsigned char 
  3940 ;;  z               1    5[COMRAM] unsigned char 
  3941 ;; Return value:  Size  Location     Type
  3942 ;;                  1    wreg      void 
  3943 ;; Registers used:
  3944 ;;		wreg, status,2, status,0, cstack
  3945 ;; Tracked objects:
  3946 ;;		On entry : 0/0
  3947 ;;		On exit  : 0/0
  3948 ;;		Unchanged: 0/0
  3949 ;; Data sizes:     COMRAM   BANK0   BANK1   BANK2   BANK3   BANK4   BANK5   BANK6   BANK7
  3950 ;;      Params:         1       0       0       0       0       0       0       0       0
  3951 ;;      Locals:         4       0       0       0       0       0       0       0       0
  3952 ;;      Temps:          0       0       0       0       0       0       0       0       0
  3953 ;;      Totals:         5       0       0       0       0       0       0       0       0
  3954 ;;Total ram usage:        5 bytes
  3955 ;; Hardware stack levels used: 1
  3956 ;; Hardware stack levels required when called: 2
  3957 ;; This function calls:
  3958 ;;		_Lcd_Cmd
  3959 ;; This function is called by:
  3960 ;;		_main
  3961 ;;		_dht11
  3962 ;; This function uses a non-reentrant model
  3963 ;;
  3964                           
  3965                           	psect	text18
  3966  001C4C                     __ptext18:
  3967                           	callstack 0
  3968  001C4C                     _lcd_gotoxy:
  3969                           	callstack 28
  3970                           
  3971                           ;incstack = 0
  3972                           ;lcd_gotoxy@a stored from wreg
  3973  001C4C  6E05               	movwf	lcd_gotoxy@a^0,c
  3974  001C4E                     
  3975                           ;./LCD_16x2_Library.h: 71: void lcd_gotoxy(char a, char b);./LCD_16x2_Library.h: 72: {;.
      +                          /LCD_16x2_Library.h: 73:    char temp,z,y;;./LCD_16x2_Library.h: 74:    if(a == 1)
  3976  001C4E  0405               	decf	lcd_gotoxy@a^0,w,c
  3977  001C50  A4D8               	btfss	status,2,c
  3978  001C52  EF2D  F00E         	goto	u1881
  3979  001C56  EF2F  F00E         	goto	u1880
  3980  001C5A                     u1881:
  3981  001C5A  EF40  F00E         	goto	l2326
  3982  001C5E                     u1880:
  3983  001C5E                     
  3984                           ;./LCD_16x2_Library.h: 75:    {;./LCD_16x2_Library.h: 76:      temp = 0x80 + b - 1;
  3985  001C5E  5004               	movf	lcd_gotoxy@b^0,w,c
  3986  001C60  0F7F               	addlw	127
  3987  001C62  6E08               	movwf	lcd_gotoxy@temp^0,c
  3988                           
  3989                           ;./LCD_16x2_Library.h: 77:       z = temp>>4;
  3990  001C64  3808               	swapf	lcd_gotoxy@temp^0,w,c
  3991  001C66  0B0F               	andlw	15
  3992  001C68  6E06               	movwf	lcd_gotoxy@z^0,c
  3993                           
  3994                           ;./LCD_16x2_Library.h: 78:       y = temp & 0x0F;
  3995  001C6A  5008               	movf	lcd_gotoxy@temp^0,w,c
  3996  001C6C  0B0F               	andlw	15
  3997  001C6E  6E07               	movwf	lcd_gotoxy@y^0,c
  3998  001C70                     
  3999                           ;./LCD_16x2_Library.h: 79:       Lcd_Cmd(z);
  4000  001C70  5006               	movf	lcd_gotoxy@z^0,w,c
  4001  001C72  ECD2  F00F         	call	_Lcd_Cmd
  4002  001C76                     
  4003                           ;./LCD_16x2_Library.h: 80:       Lcd_Cmd(y);
  4004  001C76  5007               	movf	lcd_gotoxy@y^0,w,c
  4005  001C78  ECD2  F00F         	call	_Lcd_Cmd
  4006                           
  4007                           ;./LCD_16x2_Library.h: 81:    }
  4008  001C7C  EF58  F00E         	goto	l81
  4009  001C80                     l2326:
  4010  001C80  0E02               	movlw	2
  4011  001C82  1805               	xorwf	lcd_gotoxy@a^0,w,c
  4012  001C84  A4D8               	btfss	status,2,c
  4013  001C86  EF47  F00E         	goto	u1891
  4014  001C8A  EF49  F00E         	goto	u1890
  4015  001C8E                     u1891:
  4016  001C8E  EF58  F00E         	goto	l81
  4017  001C92                     u1890:
  4018  001C92                     
  4019                           ;./LCD_16x2_Library.h: 83:    {;./LCD_16x2_Library.h: 84:       temp = 0xC0 + b - 1;
  4020  001C92  5004               	movf	lcd_gotoxy@b^0,w,c
  4021  001C94  0FBF               	addlw	191
  4022  001C96  6E08               	movwf	lcd_gotoxy@temp^0,c
  4023                           
  4024                           ;./LCD_16x2_Library.h: 85:       z = temp>>4;
  4025  001C98  3808               	swapf	lcd_gotoxy@temp^0,w,c
  4026  001C9A  0B0F               	andlw	15
  4027  001C9C  6E06               	movwf	lcd_gotoxy@z^0,c
  4028                           
  4029                           ;./LCD_16x2_Library.h: 86:       y = temp & 0x0F;
  4030  001C9E  5008               	movf	lcd_gotoxy@temp^0,w,c
  4031  001CA0  0B0F               	andlw	15
  4032  001CA2  6E07               	movwf	lcd_gotoxy@y^0,c
  4033  001CA4                     
  4034                           ;./LCD_16x2_Library.h: 87:       Lcd_Cmd(z);
  4035  001CA4  5006               	movf	lcd_gotoxy@z^0,w,c
  4036  001CA6  ECD2  F00F         	call	_Lcd_Cmd
  4037  001CAA                     
  4038                           ;./LCD_16x2_Library.h: 88:       Lcd_Cmd(y);
  4039  001CAA  5007               	movf	lcd_gotoxy@y^0,w,c
  4040  001CAC  ECD2  F00F         	call	_Lcd_Cmd
  4041  001CB0                     l81:
  4042  001CB0  0012               	return		;funcret
  4043  001CB2                     __end_of_lcd_gotoxy:
  4044                           	callstack 0
  4045                           
  4046 ;; *************** function _lcd_clear *****************
  4047 ;; Defined at:
  4048 ;;		line 63 in file "./LCD_16x2_Library.h"
  4049 ;; Parameters:    Size  Location     Type
  4050 ;;		None
  4051 ;; Auto vars:     Size  Location     Type
  4052 ;;		None
  4053 ;; Return value:  Size  Location     Type
  4054 ;;                  1    wreg      void 
  4055 ;; Registers used:
  4056 ;;		wreg, status,2, cstack
  4057 ;; Tracked objects:
  4058 ;;		On entry : 0/0
  4059 ;;		On exit  : 0/0
  4060 ;;		Unchanged: 0/0
  4061 ;; Data sizes:     COMRAM   BANK0   BANK1   BANK2   BANK3   BANK4   BANK5   BANK6   BANK7
  4062 ;;      Params:         0       0       0       0       0       0       0       0       0
  4063 ;;      Locals:         0       0       0       0       0       0       0       0       0
  4064 ;;      Temps:          0       0       0       0       0       0       0       0       0
  4065 ;;      Totals:         0       0       0       0       0       0       0       0       0
  4066 ;;Total ram usage:        0 bytes
  4067 ;; Hardware stack levels used: 1
  4068 ;; Hardware stack levels required when called: 2
  4069 ;; This function calls:
  4070 ;;		_Lcd_Cmd
  4071 ;; This function is called by:
  4072 ;;		_main
  4073 ;;		_dht11
  4074 ;; This function uses a non-reentrant model
  4075 ;;
  4076                           
  4077                           	psect	text19
  4078  002024                     __ptext19:
  4079                           	callstack 0
  4080  002024                     _lcd_clear:
  4081                           	callstack 28
  4082  002024                     
  4083                           ;./LCD_16x2_Library.h: 65:    Lcd_Cmd(0);
  4084  002024  0E00               	movlw	0
  4085  002026  ECD2  F00F         	call	_Lcd_Cmd
  4086                           
  4087                           ;./LCD_16x2_Library.h: 66:    Lcd_Cmd(1);
  4088  00202A  0E01               	movlw	1
  4089  00202C  ECD2  F00F         	call	_Lcd_Cmd
  4090  002030  0012               	return		;funcret
  4091  002032                     __end_of_lcd_clear:
  4092                           	callstack 0
  4093                           
  4094 ;; *************** function _Lcd_Cmd *****************
  4095 ;; Defined at:
  4096 ;;		line 52 in file "./LCD_16x2_Library.h"
  4097 ;; Parameters:    Size  Location     Type
  4098 ;;  a               1    wreg     unsigned char 
  4099 ;; Auto vars:     Size  Location     Type
  4100 ;;  a               1    2[COMRAM] unsigned char 
  4101 ;; Return value:  Size  Location     Type
  4102 ;;                  1    wreg      void 
  4103 ;; Registers used:
  4104 ;;		wreg, status,2, cstack
  4105 ;; Tracked objects:
  4106 ;;		On entry : 0/0
  4107 ;;		On exit  : 0/0
  4108 ;;		Unchanged: 0/0
  4109 ;; Data sizes:     COMRAM   BANK0   BANK1   BANK2   BANK3   BANK4   BANK5   BANK6   BANK7
  4110 ;;      Params:         0       0       0       0       0       0       0       0       0
  4111 ;;      Locals:         1       0       0       0       0       0       0       0       0
  4112 ;;      Temps:          1       0       0       0       0       0       0       0       0
  4113 ;;      Totals:         2       0       0       0       0       0       0       0       0
  4114 ;;Total ram usage:        2 bytes
  4115 ;; Hardware stack levels used: 1
  4116 ;; Hardware stack levels required when called: 1
  4117 ;; This function calls:
  4118 ;;		_Lcd_Port
  4119 ;; This function is called by:
  4120 ;;		_lcd_clear
  4121 ;;		_lcd_gotoxy
  4122 ;;		_lcd_init
  4123 ;;		_lcd_shift_right
  4124 ;;		_lcd_shift_left
  4125 ;; This function uses a non-reentrant model
  4126 ;;
  4127                           
  4128                           	psect	text20
  4129  001FA4                     __ptext20:
  4130                           	callstack 0
  4131  001FA4                     _Lcd_Cmd:
  4132                           	callstack 28
  4133                           
  4134                           ;incstack = 0
  4135                           ;Lcd_Cmd@a stored from wreg
  4136  001FA4  6E03               	movwf	Lcd_Cmd@a^0,c
  4137  001FA6                     
  4138                           ;./LCD_16x2_Library.h: 52: void Lcd_Cmd(char a);./LCD_16x2_Library.h: 53: {;./LCD_16x2_L
      +                          ibrary.h: 54:    RD2 = 0;
  4139  001FA6  9483               	bcf	3971,2,c	;volatile
  4140  001FA8                     
  4141                           ;./LCD_16x2_Library.h: 55:    Lcd_Port(a);
  4142  001FA8  5003               	movf	Lcd_Cmd@a^0,w,c
  4143  001FAA  EC8A  F00E         	call	_Lcd_Port
  4144  001FAE                     
  4145                           ;./LCD_16x2_Library.h: 56:    RD3 = 1;
  4146  001FAE  8683               	bsf	3971,3,c	;volatile
  4147  001FB0                     
  4148                           ;./LCD_16x2_Library.h: 57:         _delay((unsigned long)((4)*(8000000/4000.0)));
  4149  001FB0  0E0B               	movlw	11
  4150  001FB2  6E02               	movwf	??_Lcd_Cmd^0,c
  4151  001FB4  0E62               	movlw	98
  4152  001FB6                     u2927:
  4153  001FB6  2EE8               	decfsz	wreg,f,c
  4154  001FB8  D7FE               	bra	u2927
  4155  001FBA  2E02               	decfsz	??_Lcd_Cmd^0,f,c
  4156  001FBC  D7FC               	bra	u2927
  4157  001FBE  D000               	nop2	
  4158  001FC0                     
  4159                           ;./LCD_16x2_Library.h: 58:         RD3 = 0;
  4160  001FC0  9683               	bcf	3971,3,c	;volatile
  4161  001FC2  0012               	return		;funcret
  4162  001FC4                     __end_of_Lcd_Cmd:
  4163                           	callstack 0
  4164                           
  4165 ;; *************** function _Lcd_Port *****************
  4166 ;; Defined at:
  4167 ;;		line 27 in file "./LCD_16x2_Library.h"
  4168 ;; Parameters:    Size  Location     Type
  4169 ;;  a               1    wreg     unsigned char 
  4170 ;; Auto vars:     Size  Location     Type
  4171 ;;  a               1    0[COMRAM] unsigned char 
  4172 ;; Return value:  Size  Location     Type
  4173 ;;                  1    wreg      void 
  4174 ;; Registers used:
  4175 ;;		wreg
  4176 ;; Tracked objects:
  4177 ;;		On entry : 0/0
  4178 ;;		On exit  : 0/0
  4179 ;;		Unchanged: 0/0
  4180 ;; Data sizes:     COMRAM   BANK0   BANK1   BANK2   BANK3   BANK4   BANK5   BANK6   BANK7
  4181 ;;      Params:         0       0       0       0       0       0       0       0       0
  4182 ;;      Locals:         1       0       0       0       0       0       0       0       0
  4183 ;;      Temps:          0       0       0       0       0       0       0       0       0
  4184 ;;      Totals:         1       0       0       0       0       0       0       0       0
  4185 ;;Total ram usage:        1 bytes
  4186 ;; Hardware stack levels used: 1
  4187 ;; This function calls:
  4188 ;;		Nothing
  4189 ;; This function is called by:
  4190 ;;		_Lcd_Cmd
  4191 ;;		_lcd_init
  4192 ;;		_lcd_write_char
  4193 ;; This function uses a non-reentrant model
  4194 ;;
  4195                           
  4196                           	psect	text21
  4197  001D14                     __ptext21:
  4198                           	callstack 0
  4199  001D14                     _Lcd_Port:
  4200                           	callstack 29
  4201                           
  4202                           ;incstack = 0
  4203                           ;Lcd_Port@a stored from wreg
  4204  001D14  6E01               	movwf	Lcd_Port@a^0,c
  4205  001D16                     
  4206                           ;./LCD_16x2_Library.h: 27: void Lcd_Port(char a);./LCD_16x2_Library.h: 28: {;./LCD_16x2_
      +                          Library.h: 29:    if(a & 1)
  4207  001D16  A001               	btfss	Lcd_Port@a^0,0,c
  4208  001D18  EF90  F00E         	goto	u1791
  4209  001D1C  EF92  F00E         	goto	u1790
  4210  001D20                     u1791:
  4211  001D20  EF95  F00E         	goto	l61
  4212  001D24                     u1790:
  4213  001D24                     
  4214                           ;./LCD_16x2_Library.h: 30:       RD4 = 1;
  4215  001D24  8883               	bsf	3971,4,c	;volatile
  4216  001D26  EF96  F00E         	goto	l2224
  4217  001D2A                     l61:
  4218                           
  4219                           ;./LCD_16x2_Library.h: 32:       RD4 = 0;
  4220  001D2A  9883               	bcf	3971,4,c	;volatile
  4221  001D2C                     l2224:
  4222                           
  4223                           ;./LCD_16x2_Library.h: 34:    if(a & 2)
  4224  001D2C  A201               	btfss	Lcd_Port@a^0,1,c
  4225  001D2E  EF9B  F00E         	goto	u1801
  4226  001D32  EF9D  F00E         	goto	u1800
  4227  001D36                     u1801:
  4228  001D36  EFA0  F00E         	goto	l63
  4229  001D3A                     u1800:
  4230  001D3A                     
  4231                           ;./LCD_16x2_Library.h: 35:       RD5 = 1;
  4232  001D3A  8A83               	bsf	3971,5,c	;volatile
  4233  001D3C  EFA1  F00E         	goto	l2228
  4234  001D40                     l63:
  4235                           
  4236                           ;./LCD_16x2_Library.h: 37:       RD5 = 0;
  4237  001D40  9A83               	bcf	3971,5,c	;volatile
  4238  001D42                     l2228:
  4239                           
  4240                           ;./LCD_16x2_Library.h: 39:    if(a & 4)
  4241  001D42  A401               	btfss	Lcd_Port@a^0,2,c
  4242  001D44  EFA6  F00E         	goto	u1811
  4243  001D48  EFA8  F00E         	goto	u1810
  4244  001D4C                     u1811:
  4245  001D4C  EFAB  F00E         	goto	l65
  4246  001D50                     u1810:
  4247  001D50                     
  4248                           ;./LCD_16x2_Library.h: 40:       RD6 = 1;
  4249  001D50  8C83               	bsf	3971,6,c	;volatile
  4250  001D52  EFAC  F00E         	goto	l2232
  4251  001D56                     l65:
  4252                           
  4253                           ;./LCD_16x2_Library.h: 42:       RD6 = 0;
  4254  001D56  9C83               	bcf	3971,6,c	;volatile
  4255  001D58                     l2232:
  4256                           
  4257                           ;./LCD_16x2_Library.h: 44:    if(a & 8)
  4258  001D58  A601               	btfss	Lcd_Port@a^0,3,c
  4259  001D5A  EFB1  F00E         	goto	u1821
  4260  001D5E  EFB3  F00E         	goto	u1820
  4261  001D62                     u1821:
  4262  001D62  EFB6  F00E         	goto	l67
  4263  001D66                     u1820:
  4264  001D66                     
  4265                           ;./LCD_16x2_Library.h: 45:       RD7 = 1;
  4266  001D66  8E83               	bsf	3971,7,c	;volatile
  4267  001D68  EFB7  F00E         	goto	l69
  4268  001D6C                     l67:
  4269                           
  4270                           ;./LCD_16x2_Library.h: 47:       RD7 = 0;
  4271  001D6C  9E83               	bcf	3971,7,c	;volatile
  4272  001D6E                     l69:
  4273  001D6E  0012               	return		;funcret
  4274  001D70                     __end_of_Lcd_Port:
  4275                           	callstack 0
  4276                           
  4277 ;; *************** function _encender_lampara *****************
  4278 ;; Defined at:
  4279 ;;		line 285 in file "Teclado_Matricial_4x4_Cerradura_Electronica.c"
  4280 ;; Parameters:    Size  Location     Type
  4281 ;;  ldr_output      2    0[COMRAM] int 
  4282 ;; Auto vars:     Size  Location     Type
  4283 ;;		None
  4284 ;; Return value:  Size  Location     Type
  4285 ;;                  1    wreg      void 
  4286 ;; Registers used:
  4287 ;;		wreg, status,2, status,0
  4288 ;; Tracked objects:
  4289 ;;		On entry : 0/0
  4290 ;;		On exit  : 0/0
  4291 ;;		Unchanged: 0/0
  4292 ;; Data sizes:     COMRAM   BANK0   BANK1   BANK2   BANK3   BANK4   BANK5   BANK6   BANK7
  4293 ;;      Params:         2       0       0       0       0       0       0       0       0
  4294 ;;      Locals:         0       0       0       0       0       0       0       0       0
  4295 ;;      Temps:          0       0       0       0       0       0       0       0       0
  4296 ;;      Totals:         2       0       0       0       0       0       0       0       0
  4297 ;;Total ram usage:        2 bytes
  4298 ;; Hardware stack levels used: 1
  4299 ;; This function calls:
  4300 ;;		Nothing
  4301 ;; This function is called by:
  4302 ;;		_dht11
  4303 ;; This function uses a non-reentrant model
  4304 ;;
  4305                           
  4306                           	psect	text22
  4307  001FE4                     __ptext22:
  4308                           	callstack 0
  4309  001FE4                     _encender_lampara:
  4310                           	callstack 29
  4311  001FE4                     
  4312                           ;Teclado_Matricial_4x4_Cerradura_Electronica.c: 285: void encender_lampara(int ldr_outpu
      +                          t);Teclado_Matricial_4x4_Cerradura_Electronica.c: 286: {;Teclado_Matricial_4x4_Cerradura
      +                          _Electronica.c: 287:     if(ldr_output==0)
  4313  001FE4  5001               	movf	encender_lampara@ldr_output^0,w,c
  4314  001FE6  1002               	iorwf	(encender_lampara@ldr_output+1)^0,w,c
  4315  001FE8  A4D8               	btfss	status,2,c
  4316  001FEA  EFF9  F00F         	goto	u2011
  4317  001FEE  EFFB  F00F         	goto	u2010
  4318  001FF2                     u2011:
  4319  001FF2  EFFE  F00F         	goto	l179
  4320  001FF6                     u2010:
  4321  001FF6                     
  4322                           ;Teclado_Matricial_4x4_Cerradura_Electronica.c: 288:     {;Teclado_Matricial_4x4_Cerradu
      +                          ra_Electronica.c: 289:         LATDbits.LATD0=1;
  4323  001FF6  808C               	bsf	140,0,c	;volatile
  4324                           
  4325                           ;Teclado_Matricial_4x4_Cerradura_Electronica.c: 290:     }
  4326  001FF8  EFFF  F00F         	goto	l181
  4327  001FFC                     l179:
  4328                           
  4329                           ;Teclado_Matricial_4x4_Cerradura_Electronica.c: 292:     {;Teclado_Matricial_4x4_Cerradu
      +                          ra_Electronica.c: 293:         LATDbits.LATD0=0;
  4330  001FFC  908C               	bcf	140,0,c	;volatile
  4331  001FFE                     l181:
  4332  001FFE  0012               	return		;funcret
  4333  002000                     __end_of_encender_lampara:
  4334                           	callstack 0
  4335                           
  4336 ;; *************** function _LDR_funcion *****************
  4337 ;; Defined at:
  4338 ;;		line 275 in file "Teclado_Matricial_4x4_Cerradura_Electronica.c"
  4339 ;; Parameters:    Size  Location     Type
  4340 ;;		None
  4341 ;; Auto vars:     Size  Location     Type
  4342 ;;  ldr_data        2    3[COMRAM] int 
  4343 ;; Return value:  Size  Location     Type
  4344 ;;                  2    0[COMRAM] int 
  4345 ;; Registers used:
  4346 ;;		wreg, status,2
  4347 ;; Tracked objects:
  4348 ;;		On entry : 0/0
  4349 ;;		On exit  : 0/0
  4350 ;;		Unchanged: 0/0
  4351 ;; Data sizes:     COMRAM   BANK0   BANK1   BANK2   BANK3   BANK4   BANK5   BANK6   BANK7
  4352 ;;      Params:         2       0       0       0       0       0       0       0       0
  4353 ;;      Locals:         2       0       0       0       0       0       0       0       0
  4354 ;;      Temps:          1       0       0       0       0       0       0       0       0
  4355 ;;      Totals:         5       0       0       0       0       0       0       0       0
  4356 ;;Total ram usage:        5 bytes
  4357 ;; Hardware stack levels used: 1
  4358 ;; This function calls:
  4359 ;;		Nothing
  4360 ;; This function is called by:
  4361 ;;		_dht11
  4362 ;; This function uses a non-reentrant model
  4363 ;;
  4364                           
  4365                           	psect	text23
  4366  001F7E                     __ptext23:
  4367                           	callstack 0
  4368  001F7E                     _LDR_funcion:
  4369                           	callstack 29
  4370  001F7E                     
  4371                           ;Teclado_Matricial_4x4_Cerradura_Electronica.c: 278:     TRISAbits.RA1=1;
  4372  001F7E  8292               	bsf	146,1,c	;volatile
  4373                           
  4374                           ;Teclado_Matricial_4x4_Cerradura_Electronica.c: 280:     ldr_data=PORTAbits.RA1;
  4375  001F80  B280               	btfsc	128,1,c	;volatile
  4376  001F82  EFC5  F00F         	goto	u1931
  4377  001F86  EFC9  F00F         	goto	u1930
  4378  001F8A                     u1931:
  4379  001F8A  6A03               	clrf	??_LDR_funcion^0,c
  4380  001F8C  2A03               	incf	??_LDR_funcion^0,f,c
  4381  001F8E  EFCA  F00F         	goto	u1938
  4382  001F92                     u1930:
  4383  001F92  6A03               	clrf	??_LDR_funcion^0,c
  4384  001F94                     u1938:
  4385  001F94  5003               	movf	??_LDR_funcion^0,w,c
  4386  001F96  6E04               	movwf	LDR_funcion@ldr_data^0,c
  4387  001F98  6A05               	clrf	(LDR_funcion@ldr_data+1)^0,c
  4388  001F9A                     
  4389                           ;Teclado_Matricial_4x4_Cerradura_Electronica.c: 282:     return ldr_data;
  4390  001F9A  C004  F001         	movff	LDR_funcion@ldr_data,?_LDR_funcion
  4391  001F9E  C005  F002         	movff	LDR_funcion@ldr_data+1,?_LDR_funcion+1
  4392  001FA2  0012               	return		;funcret
  4393  001FA4                     __end_of_LDR_funcion:
  4394                           	callstack 0
  4395                           
  4396 ;; *************** function _DHT11_Start *****************
  4397 ;; Defined at:
  4398 ;;		line 257 in file "Teclado_Matricial_4x4_Cerradura_Electronica.c"
  4399 ;; Parameters:    Size  Location     Type
  4400 ;;		None
  4401 ;; Auto vars:     Size  Location     Type
  4402 ;;		None
  4403 ;; Return value:  Size  Location     Type
  4404 ;;                  1    wreg      void 
  4405 ;; Registers used:
  4406 ;;		wreg
  4407 ;; Tracked objects:
  4408 ;;		On entry : 0/0
  4409 ;;		On exit  : 0/0
  4410 ;;		Unchanged: 0/0
  4411 ;; Data sizes:     COMRAM   BANK0   BANK1   BANK2   BANK3   BANK4   BANK5   BANK6   BANK7
  4412 ;;      Params:         0       0       0       0       0       0       0       0       0
  4413 ;;      Locals:         0       0       0       0       0       0       0       0       0
  4414 ;;      Temps:          1       0       0       0       0       0       0       0       0
  4415 ;;      Totals:         1       0       0       0       0       0       0       0       0
  4416 ;;Total ram usage:        1 bytes
  4417 ;; Hardware stack levels used: 1
  4418 ;; This function calls:
  4419 ;;		Nothing
  4420 ;; This function is called by:
  4421 ;;		_dht11
  4422 ;; This function uses a non-reentrant model
  4423 ;;
  4424                           
  4425                           	psect	text24
  4426  001FC4                     __ptext24:
  4427                           	callstack 0
  4428  001FC4                     _DHT11_Start:
  4429                           	callstack 29
  4430  001FC4                     
  4431                           ;Teclado_Matricial_4x4_Cerradura_Electronica.c: 259:     TRISAbits.RA0 = 0;
  4432  001FC4  9092               	bcf	146,0,c	;volatile
  4433                           
  4434                           ;Teclado_Matricial_4x4_Cerradura_Electronica.c: 260:     LATA0 = 0;
  4435  001FC6  9089               	bcf	3977,0,c	;volatile
  4436  001FC8                     
  4437                           ;Teclado_Matricial_4x4_Cerradura_Electronica.c: 261:     _delay((unsigned long)((18)*(80
      +                          00000/4000.0)));
  4438  001FC8  0E2F               	movlw	47
  4439  001FCA  6E01               	movwf	??_DHT11_Start^0,c
  4440  001FCC  0EC0               	movlw	192
  4441  001FCE                     u2937:
  4442  001FCE  2EE8               	decfsz	wreg,f,c
  4443  001FD0  D7FE               	bra	u2937
  4444  001FD2  2E01               	decfsz	??_DHT11_Start^0,f,c
  4445  001FD4  D7FC               	bra	u2937
  4446  001FD6                     
  4447                           ;Teclado_Matricial_4x4_Cerradura_Electronica.c: 262:     LATA0 = 1;
  4448  001FD6  8089               	bsf	3977,0,c	;volatile
  4449                           
  4450                           ;Teclado_Matricial_4x4_Cerradura_Electronica.c: 263:     _delay((unsigned long)((20)*(80
      +                          00000/4000000.0)));
  4451  001FD8  0E0D               	movlw	13
  4452  001FDA                     u2947:
  4453  001FDA  2EE8               	decfsz	wreg,f,c
  4454  001FDC  D7FE               	bra	u2947
  4455  001FDE  F000               	nop	
  4456  001FE0                     
  4457                           ;Teclado_Matricial_4x4_Cerradura_Electronica.c: 264:     TRISAbits.RA0 = 1;
  4458  001FE0  8092               	bsf	146,0,c	;volatile
  4459  001FE2  0012               	return		;funcret
  4460  001FE4                     __end_of_DHT11_Start:
  4461                           	callstack 0
  4462                           
  4463 ;; *************** function _DHT11_ReadData *****************
  4464 ;; Defined at:
  4465 ;;		line 241 in file "Teclado_Matricial_4x4_Cerradura_Electronica.c"
  4466 ;; Parameters:    Size  Location     Type
  4467 ;;		None
  4468 ;; Auto vars:     Size  Location     Type
  4469 ;;  data            1    1[COMRAM] unsigned char 
  4470 ;;  i               1    0[COMRAM] unsigned char 
  4471 ;; Return value:  Size  Location     Type
  4472 ;;                  1    wreg      unsigned char 
  4473 ;; Registers used:
  4474 ;;		wreg, status,2, status,0
  4475 ;; Tracked objects:
  4476 ;;		On entry : 0/0
  4477 ;;		On exit  : 0/0
  4478 ;;		Unchanged: 0/0
  4479 ;; Data sizes:     COMRAM   BANK0   BANK1   BANK2   BANK3   BANK4   BANK5   BANK6   BANK7
  4480 ;;      Params:         0       0       0       0       0       0       0       0       0
  4481 ;;      Locals:         2       0       0       0       0       0       0       0       0
  4482 ;;      Temps:          0       0       0       0       0       0       0       0       0
  4483 ;;      Totals:         2       0       0       0       0       0       0       0       0
  4484 ;;Total ram usage:        2 bytes
  4485 ;; Hardware stack levels used: 1
  4486 ;; This function calls:
  4487 ;;		Nothing
  4488 ;; This function is called by:
  4489 ;;		_dht11
  4490 ;; This function uses a non-reentrant model
  4491 ;;
  4492                           
  4493                           	psect	text25
  4494  001D70                     __ptext25:
  4495                           	callstack 0
  4496  001D70                     _DHT11_ReadData:
  4497                           	callstack 29
  4498  001D70                     
  4499                           ;Teclado_Matricial_4x4_Cerradura_Electronica.c: 243:   char i,data = 0;
  4500  001D70  0E00               	movlw	0
  4501  001D72  6E02               	movwf	DHT11_ReadData@data^0,c
  4502                           
  4503                           ;Teclado_Matricial_4x4_Cerradura_Electronica.c: 244:     for(i=0;i<8;i++)
  4504  001D74  0E00               	movlw	0
  4505  001D76  6E01               	movwf	DHT11_ReadData@i^0,c
  4506  001D78                     l150:
  4507  001D78  A080               	btfss	128,0,c	;volatile
  4508  001D7A  EFC1  F00E         	goto	u1971
  4509  001D7E  EFC3  F00E         	goto	u1970
  4510  001D82                     u1971:
  4511  001D82  EFBC  F00E         	goto	l150
  4512  001D86                     u1970:
  4513  001D86                     
  4514                           ;Teclado_Matricial_4x4_Cerradura_Electronica.c: 247:         _delay((unsigned long)((30)
      +                          *(8000000/4000000.0)));
  4515  001D86  0E14               	movlw	20
  4516  001D88                     u2957:
  4517  001D88  2EE8               	decfsz	wreg,f,c
  4518  001D8A  D7FE               	bra	u2957
  4519  001D8C                     
  4520                           ;Teclado_Matricial_4x4_Cerradura_Electronica.c: 248:         if(PORTAbits.RA0 & 1)
  4521  001D8C  A080               	btfss	128,0,c	;volatile
  4522  001D8E  EFCB  F00E         	goto	u1981
  4523  001D92  EFCD  F00E         	goto	u1980
  4524  001D96                     u1981:
  4525  001D96  EFD1  F00E         	goto	l2416
  4526  001D9A                     u1980:
  4527  001D9A                     
  4528                           ;Teclado_Matricial_4x4_Cerradura_Electronica.c: 249:           data = ((data<<1) | 1);
  4529  001D9A  80D8               	bsf	status,0,c
  4530  001D9C  3602               	rlcf	DHT11_ReadData@data^0,f,c
  4531  001D9E  EFD4  F00E         	goto	l155
  4532  001DA2                     l2416:
  4533                           
  4534                           ;Teclado_Matricial_4x4_Cerradura_Electronica.c: 251:           data = (data<<1);
  4535  001DA2  5002               	movf	DHT11_ReadData@data^0,w,c
  4536  001DA4  2402               	addwf	DHT11_ReadData@data^0,w,c
  4537  001DA6  6E02               	movwf	DHT11_ReadData@data^0,c
  4538  001DA8                     l155:
  4539  001DA8  B080               	btfsc	128,0,c	;volatile
  4540  001DAA  EFD9  F00E         	goto	u1991
  4541  001DAE  EFDB  F00E         	goto	u1990
  4542  001DB2                     u1991:
  4543  001DB2  EFD4  F00E         	goto	l155
  4544  001DB6                     u1990:
  4545  001DB6                     
  4546                           ;Teclado_Matricial_4x4_Cerradura_Electronica.c: 253:     }
  4547  001DB6  2A01               	incf	DHT11_ReadData@i^0,f,c
  4548  001DB8  0E07               	movlw	7
  4549  001DBA  6401               	cpfsgt	DHT11_ReadData@i^0,c
  4550  001DBC  EFE2  F00E         	goto	u2001
  4551  001DC0  EFE4  F00E         	goto	u2000
  4552  001DC4                     u2001:
  4553  001DC4  EFBC  F00E         	goto	l150
  4554  001DC8                     u2000:
  4555  001DC8                     
  4556                           ;Teclado_Matricial_4x4_Cerradura_Electronica.c: 254:   return data;
  4557  001DC8  5002               	movf	DHT11_ReadData@data^0,w,c
  4558  001DCA  0012               	return		;funcret
  4559  001DCC                     __end_of_DHT11_ReadData:
  4560                           	callstack 0
  4561                           
  4562 ;; *************** function _DHT11_CheckResponse *****************
  4563 ;; Defined at:
  4564 ;;		line 268 in file "Teclado_Matricial_4x4_Cerradura_Electronica.c"
  4565 ;; Parameters:    Size  Location     Type
  4566 ;;		None
  4567 ;; Auto vars:     Size  Location     Type
  4568 ;;		None
  4569 ;; Return value:  Size  Location     Type
  4570 ;;                  1    wreg      void 
  4571 ;; Registers used:
  4572 ;;		None
  4573 ;; Tracked objects:
  4574 ;;		On entry : 0/0
  4575 ;;		On exit  : 0/0
  4576 ;;		Unchanged: 0/0
  4577 ;; Data sizes:     COMRAM   BANK0   BANK1   BANK2   BANK3   BANK4   BANK5   BANK6   BANK7
  4578 ;;      Params:         0       0       0       0       0       0       0       0       0
  4579 ;;      Locals:         0       0       0       0       0       0       0       0       0
  4580 ;;      Temps:          0       0       0       0       0       0       0       0       0
  4581 ;;      Totals:         0       0       0       0       0       0       0       0       0
  4582 ;;Total ram usage:        0 bytes
  4583 ;; Hardware stack levels used: 1
  4584 ;; This function calls:
  4585 ;;		Nothing
  4586 ;; This function is called by:
  4587 ;;		_dht11
  4588 ;; This function uses a non-reentrant model
  4589 ;;
  4590                           
  4591                           	psect	text26
  4592  001F52                     __ptext26:
  4593                           	callstack 0
  4594  001F52                     _DHT11_CheckResponse:
  4595                           	callstack 29
  4596  001F52                     l164:
  4597  001F52  B080               	btfsc	128,0,c	;volatile
  4598  001F54  EFAE  F00F         	goto	u1941
  4599  001F58  EFB0  F00F         	goto	u1940
  4600  001F5C                     u1941:
  4601  001F5C  EFA9  F00F         	goto	l164
  4602  001F60                     u1940:
  4603  001F60                     l167:
  4604  001F60  A080               	btfss	128,0,c	;volatile
  4605  001F62  EFB5  F00F         	goto	u1951
  4606  001F66  EFB7  F00F         	goto	u1950
  4607  001F6A                     u1951:
  4608  001F6A  EFB0  F00F         	goto	l167
  4609  001F6E                     u1950:
  4610  001F6E                     l170:
  4611  001F6E  B080               	btfsc	128,0,c	;volatile
  4612  001F70  EFBC  F00F         	goto	u1961
  4613  001F74  EFBE  F00F         	goto	u1960
  4614  001F78                     u1961:
  4615  001F78  EFB7  F00F         	goto	l170
  4616  001F7C                     u1960:
  4617  001F7C  0012               	return		;funcret
  4618  001F7E                     __end_of_DHT11_CheckResponse:
  4619                           	callstack 0
  4620                           
  4621 ;; *************** function _Configuracion_Registros *****************
  4622 ;; Defined at:
  4623 ;;		line 164 in file "Teclado_Matricial_4x4_Cerradura_Electronica.c"
  4624 ;; Parameters:    Size  Location     Type
  4625 ;;		None
  4626 ;; Auto vars:     Size  Location     Type
  4627 ;;		None
  4628 ;; Return value:  Size  Location     Type
  4629 ;;                  1    wreg      void 
  4630 ;; Registers used:
  4631 ;;		wreg, status,2, status,0
  4632 ;; Tracked objects:
  4633 ;;		On entry : 0/0
  4634 ;;		On exit  : 0/0
  4635 ;;		Unchanged: 0/0
  4636 ;; Data sizes:     COMRAM   BANK0   BANK1   BANK2   BANK3   BANK4   BANK5   BANK6   BANK7
  4637 ;;      Params:         0       0       0       0       0       0       0       0       0
  4638 ;;      Locals:         0       0       0       0       0       0       0       0       0
  4639 ;;      Temps:          0       0       0       0       0       0       0       0       0
  4640 ;;      Totals:         0       0       0       0       0       0       0       0       0
  4641 ;;Total ram usage:        0 bytes
  4642 ;; Hardware stack levels used: 1
  4643 ;; This function calls:
  4644 ;;		Nothing
  4645 ;; This function is called by:
  4646 ;;		_main
  4647 ;;		_dht11
  4648 ;; This function uses a non-reentrant model
  4649 ;;
  4650                           
  4651                           	psect	text27
  4652  002032                     __ptext27:
  4653                           	callstack 0
  4654  002032                     _Configuracion_Registros:
  4655                           	callstack 29
  4656  002032                     
  4657                           ;Teclado_Matricial_4x4_Cerradura_Electronica.c: 166:     ADCON1bits.PCFG=0b1111;
  4658  002032  0E0F               	movlw	15
  4659  002034  12C1               	iorwf	193,f,c	;volatile
  4660  002036                     
  4661                           ;Teclado_Matricial_4x4_Cerradura_Electronica.c: 167:     TRISC&=~((1<<0)|(1<<1)|(1<<2));
  4662  002036  0EF8               	movlw	248
  4663  002038  1694               	andwf	148,f,c	;volatile
  4664  00203A                     
  4665                           ;Teclado_Matricial_4x4_Cerradura_Electronica.c: 168:     TRISC&=~(1<<7);
  4666  00203A  9E94               	bcf	148,7,c	;volatile
  4667  00203C  0012               	return		;funcret
  4668  00203E                     __end_of_Configuracion_Registros:
  4669                           	callstack 0
  4670                           
  4671 ;; *************** function _Keypad_Init *****************
  4672 ;; Defined at:
  4673 ;;		line 9 in file "KeyPad_4x4_Library.c"
  4674 ;; Parameters:    Size  Location     Type
  4675 ;;		None
  4676 ;; Auto vars:     Size  Location     Type
  4677 ;;		None
  4678 ;; Return value:  Size  Location     Type
  4679 ;;                  1    wreg      void 
  4680 ;; Registers used:
  4681 ;;		None
  4682 ;; Tracked objects:
  4683 ;;		On entry : 0/0
  4684 ;;		On exit  : 0/0
  4685 ;;		Unchanged: 0/0
  4686 ;; Data sizes:     COMRAM   BANK0   BANK1   BANK2   BANK3   BANK4   BANK5   BANK6   BANK7
  4687 ;;      Params:         0       0       0       0       0       0       0       0       0
  4688 ;;      Locals:         0       0       0       0       0       0       0       0       0
  4689 ;;      Temps:          0       0       0       0       0       0       0       0       0
  4690 ;;      Totals:         0       0       0       0       0       0       0       0       0
  4691 ;;Total ram usage:        0 bytes
  4692 ;; Hardware stack levels used: 1
  4693 ;; This function calls:
  4694 ;;		Nothing
  4695 ;; This function is called by:
  4696 ;;		_main
  4697 ;; This function uses a non-reentrant model
  4698 ;;
  4699                           
  4700                           	psect	text28
  4701  002000                     __ptext28:
  4702                           	callstack 0
  4703  002000                     _Keypad_Init:
  4704                           	callstack 30
  4705  002000                     
  4706                           ;KeyPad_4x4_Library.c: 11:     TRISBbits.TRISB7 = 0;
  4707  002000  9E93               	bcf	147,7,c	;volatile
  4708                           
  4709                           ;KeyPad_4x4_Library.c: 12:     TRISBbits.TRISB6 = 0;
  4710  002002  9C93               	bcf	147,6,c	;volatile
  4711                           
  4712                           ;KeyPad_4x4_Library.c: 13:     TRISBbits.TRISB5 = 0;
  4713  002004  9A93               	bcf	147,5,c	;volatile
  4714                           
  4715                           ;KeyPad_4x4_Library.c: 14:     TRISBbits.TRISB4 = 0;
  4716  002006  9893               	bcf	147,4,c	;volatile
  4717                           
  4718                           ;KeyPad_4x4_Library.c: 15:     TRISBbits.TRISB3 = 1;
  4719  002008  8693               	bsf	147,3,c	;volatile
  4720                           
  4721                           ;KeyPad_4x4_Library.c: 16:     TRISBbits.TRISB2 = 1;
  4722  00200A  8493               	bsf	147,2,c	;volatile
  4723                           
  4724                           ;KeyPad_4x4_Library.c: 17:     TRISBbits.TRISB1 = 1;
  4725  00200C  8293               	bsf	147,1,c	;volatile
  4726                           
  4727                           ;KeyPad_4x4_Library.c: 18:     TRISBbits.TRISB0 = 1;
  4728  00200E  8093               	bsf	147,0,c	;volatile
  4729  002010  0012               	return		;funcret
  4730  002012                     __end_of_Keypad_Init:
  4731                           	callstack 0
  4732                           
  4733 ;; *************** function _Keypad_Get_Char *****************
  4734 ;; Defined at:
  4735 ;;		line 23 in file "KeyPad_4x4_Library.c"
  4736 ;; Parameters:    Size  Location     Type
  4737 ;;		None
  4738 ;; Auto vars:     Size  Location     Type
  4739 ;;		None
  4740 ;; Return value:  Size  Location     Type
  4741 ;;                  1    wreg      unsigned char 
  4742 ;; Registers used:
  4743 ;;		wreg
  4744 ;; Tracked objects:
  4745 ;;		On entry : 0/0
  4746 ;;		On exit  : 0/0
  4747 ;;		Unchanged: 0/0
  4748 ;; Data sizes:     COMRAM   BANK0   BANK1   BANK2   BANK3   BANK4   BANK5   BANK6   BANK7
  4749 ;;      Params:         0       0       0       0       0       0       0       0       0
  4750 ;;      Locals:         0       0       0       0       0       0       0       0       0
  4751 ;;      Temps:          1       0       0       0       0       0       0       0       0
  4752 ;;      Totals:         1       0       0       0       0       0       0       0       0
  4753 ;;Total ram usage:        1 bytes
  4754 ;; Hardware stack levels used: 1
  4755 ;; This function calls:
  4756 ;;		Nothing
  4757 ;; This function is called by:
  4758 ;;		_main
  4759 ;; This function uses a non-reentrant model
  4760 ;;
  4761                           
  4762                           	psect	text29
  4763  0008F0                     __ptext29:
  4764                           	callstack 0
  4765  0008F0                     _Keypad_Get_Char:
  4766                           	callstack 30
  4767  0008F0                     
  4768                           ;KeyPad_4x4_Library.c: 25:     LATBbits.LATB7 = 0;
  4769  0008F0  9E8A               	bcf	138,7,c	;volatile
  4770                           
  4771                           ;KeyPad_4x4_Library.c: 26:     LATBbits.LATB6 = 1;
  4772  0008F2  8C8A               	bsf	138,6,c	;volatile
  4773                           
  4774                           ;KeyPad_4x4_Library.c: 27:     LATBbits.LATB5 = 1;
  4775  0008F4  8A8A               	bsf	138,5,c	;volatile
  4776                           
  4777                           ;KeyPad_4x4_Library.c: 28:     LATBbits.LATB4 = 1;
  4778  0008F6  888A               	bsf	138,4,c	;volatile
  4779                           
  4780                           ;KeyPad_4x4_Library.c: 29:     if(PORTBbits.RB3 == 0){
  4781  0008F8  B681               	btfsc	129,3,c	;volatile
  4782  0008FA  EF81  F004         	goto	u2021
  4783  0008FE  EF83  F004         	goto	u2020
  4784  000902                     u2021:
  4785  000902  EF9C  F004         	goto	l195
  4786  000906                     u2020:
  4787  000906                     
  4788                           ;KeyPad_4x4_Library.c: 30:         _delay((unsigned long)((2)*(8000000/4000.0)));
  4789  000906  0E06               	movlw	6
  4790  000908  6E01               	movwf	??_Keypad_Get_Char^0,c
  4791  00090A  0E30               	movlw	48
  4792  00090C                     u2967:
  4793  00090C  2EE8               	decfsz	wreg,f,c
  4794  00090E  D7FE               	bra	u2967
  4795  000910  2E01               	decfsz	??_Keypad_Get_Char^0,f,c
  4796  000912  D7FC               	bra	u2967
  4797  000914  D000               	nop2	
  4798  000916                     l196:
  4799  000916  A681               	btfss	129,3,c	;volatile
  4800  000918  EF90  F004         	goto	u2031
  4801  00091C  EF92  F004         	goto	u2030
  4802  000920                     u2031:
  4803  000920  EF8B  F004         	goto	l196
  4804  000924                     u2030:
  4805  000924                     
  4806                           ;KeyPad_4x4_Library.c: 32:         _delay((unsigned long)((5)*(8000000/4000.0)));
  4807  000924  0E0D               	movlw	13
  4808  000926  6E01               	movwf	??_Keypad_Get_Char^0,c
  4809  000928  0EFC               	movlw	252
  4810  00092A                     u2977:
  4811  00092A  2EE8               	decfsz	wreg,f,c
  4812  00092C  D7FE               	bra	u2977
  4813  00092E  2E01               	decfsz	??_Keypad_Get_Char^0,f,c
  4814  000930  D7FC               	bra	u2977
  4815                           
  4816                           ;KeyPad_4x4_Library.c: 33:         return '1';
  4817  000932  0E31               	movlw	49
  4818  000934  EF89  F006         	goto	l199
  4819  000938                     l195:
  4820                           
  4821                           ;KeyPad_4x4_Library.c: 35:     if(PORTBbits.RB2 == 0){
  4822  000938  B481               	btfsc	129,2,c	;volatile
  4823  00093A  EFA1  F004         	goto	u2041
  4824  00093E  EFA3  F004         	goto	u2040
  4825  000942                     u2041:
  4826  000942  EFBC  F004         	goto	l200
  4827  000946                     u2040:
  4828  000946                     
  4829                           ;KeyPad_4x4_Library.c: 36:         _delay((unsigned long)((2)*(8000000/4000.0)));
  4830  000946  0E06               	movlw	6
  4831  000948  6E01               	movwf	??_Keypad_Get_Char^0,c
  4832  00094A  0E30               	movlw	48
  4833  00094C                     u2987:
  4834  00094C  2EE8               	decfsz	wreg,f,c
  4835  00094E  D7FE               	bra	u2987
  4836  000950  2E01               	decfsz	??_Keypad_Get_Char^0,f,c
  4837  000952  D7FC               	bra	u2987
  4838  000954  D000               	nop2	
  4839  000956                     l201:
  4840  000956  A481               	btfss	129,2,c	;volatile
  4841  000958  EFB0  F004         	goto	u2051
  4842  00095C  EFB2  F004         	goto	u2050
  4843  000960                     u2051:
  4844  000960  EFAB  F004         	goto	l201
  4845  000964                     u2050:
  4846  000964                     
  4847                           ;KeyPad_4x4_Library.c: 38:         _delay((unsigned long)((5)*(8000000/4000.0)));
  4848  000964  0E0D               	movlw	13
  4849  000966  6E01               	movwf	??_Keypad_Get_Char^0,c
  4850  000968  0EFC               	movlw	252
  4851  00096A                     u2997:
  4852  00096A  2EE8               	decfsz	wreg,f,c
  4853  00096C  D7FE               	bra	u2997
  4854  00096E  2E01               	decfsz	??_Keypad_Get_Char^0,f,c
  4855  000970  D7FC               	bra	u2997
  4856                           
  4857                           ;KeyPad_4x4_Library.c: 39:         return '2';
  4858  000972  0E32               	movlw	50
  4859  000974  EF89  F006         	goto	l199
  4860  000978                     l200:
  4861                           
  4862                           ;KeyPad_4x4_Library.c: 41:     if(PORTBbits.RB1 == 0){
  4863  000978  B281               	btfsc	129,1,c	;volatile
  4864  00097A  EFC1  F004         	goto	u2061
  4865  00097E  EFC3  F004         	goto	u2060
  4866  000982                     u2061:
  4867  000982  EFDC  F004         	goto	l204
  4868  000986                     u2060:
  4869  000986                     
  4870                           ;KeyPad_4x4_Library.c: 42:         _delay((unsigned long)((2)*(8000000/4000.0)));
  4871  000986  0E06               	movlw	6
  4872  000988  6E01               	movwf	??_Keypad_Get_Char^0,c
  4873  00098A  0E30               	movlw	48
  4874  00098C                     u3007:
  4875  00098C  2EE8               	decfsz	wreg,f,c
  4876  00098E  D7FE               	bra	u3007
  4877  000990  2E01               	decfsz	??_Keypad_Get_Char^0,f,c
  4878  000992  D7FC               	bra	u3007
  4879  000994  D000               	nop2	
  4880  000996                     l205:
  4881  000996  A281               	btfss	129,1,c	;volatile
  4882  000998  EFD0  F004         	goto	u2071
  4883  00099C  EFD2  F004         	goto	u2070
  4884  0009A0                     u2071:
  4885  0009A0  EFCB  F004         	goto	l205
  4886  0009A4                     u2070:
  4887  0009A4                     
  4888                           ;KeyPad_4x4_Library.c: 44:         _delay((unsigned long)((5)*(8000000/4000.0)));
  4889  0009A4  0E0D               	movlw	13
  4890  0009A6  6E01               	movwf	??_Keypad_Get_Char^0,c
  4891  0009A8  0EFC               	movlw	252
  4892  0009AA                     u3017:
  4893  0009AA  2EE8               	decfsz	wreg,f,c
  4894  0009AC  D7FE               	bra	u3017
  4895  0009AE  2E01               	decfsz	??_Keypad_Get_Char^0,f,c
  4896  0009B0  D7FC               	bra	u3017
  4897                           
  4898                           ;KeyPad_4x4_Library.c: 45:         return '3';
  4899  0009B2  0E33               	movlw	51
  4900  0009B4  EF89  F006         	goto	l199
  4901  0009B8                     l204:
  4902                           
  4903                           ;KeyPad_4x4_Library.c: 47:     if(PORTBbits.RB0 == 0){
  4904  0009B8  B081               	btfsc	129,0,c	;volatile
  4905  0009BA  EFE1  F004         	goto	u2081
  4906  0009BE  EFE3  F004         	goto	u2080
  4907  0009C2                     u2081:
  4908  0009C2  EFFC  F004         	goto	l208
  4909  0009C6                     u2080:
  4910  0009C6                     
  4911                           ;KeyPad_4x4_Library.c: 48:         _delay((unsigned long)((2)*(8000000/4000.0)));
  4912  0009C6  0E06               	movlw	6
  4913  0009C8  6E01               	movwf	??_Keypad_Get_Char^0,c
  4914  0009CA  0E30               	movlw	48
  4915  0009CC                     u3027:
  4916  0009CC  2EE8               	decfsz	wreg,f,c
  4917  0009CE  D7FE               	bra	u3027
  4918  0009D0  2E01               	decfsz	??_Keypad_Get_Char^0,f,c
  4919  0009D2  D7FC               	bra	u3027
  4920  0009D4  D000               	nop2	
  4921  0009D6                     l209:
  4922  0009D6  A081               	btfss	129,0,c	;volatile
  4923  0009D8  EFF0  F004         	goto	u2091
  4924  0009DC  EFF2  F004         	goto	u2090
  4925  0009E0                     u2091:
  4926  0009E0  EFEB  F004         	goto	l209
  4927  0009E4                     u2090:
  4928  0009E4                     
  4929                           ;KeyPad_4x4_Library.c: 50:         _delay((unsigned long)((5)*(8000000/4000.0)));
  4930  0009E4  0E0D               	movlw	13
  4931  0009E6  6E01               	movwf	??_Keypad_Get_Char^0,c
  4932  0009E8  0EFC               	movlw	252
  4933  0009EA                     u3037:
  4934  0009EA  2EE8               	decfsz	wreg,f,c
  4935  0009EC  D7FE               	bra	u3037
  4936  0009EE  2E01               	decfsz	??_Keypad_Get_Char^0,f,c
  4937  0009F0  D7FC               	bra	u3037
  4938                           
  4939                           ;KeyPad_4x4_Library.c: 51:         return 'A';
  4940  0009F2  0E41               	movlw	65
  4941  0009F4  EF89  F006         	goto	l199
  4942  0009F8                     l208:
  4943                           
  4944                           ;KeyPad_4x4_Library.c: 54:     LATBbits.LATB7 = 1;
  4945  0009F8  8E8A               	bsf	138,7,c	;volatile
  4946                           
  4947                           ;KeyPad_4x4_Library.c: 55:     LATBbits.LATB6 = 0;
  4948  0009FA  9C8A               	bcf	138,6,c	;volatile
  4949                           
  4950                           ;KeyPad_4x4_Library.c: 56:     LATBbits.LATB5 = 1;
  4951  0009FC  8A8A               	bsf	138,5,c	;volatile
  4952                           
  4953                           ;KeyPad_4x4_Library.c: 57:     LATBbits.LATB4 = 1;
  4954  0009FE  888A               	bsf	138,4,c	;volatile
  4955                           
  4956                           ;KeyPad_4x4_Library.c: 58:     if(PORTBbits.RB3 == 0){
  4957  000A00  B681               	btfsc	129,3,c	;volatile
  4958  000A02  EF05  F005         	goto	u2101
  4959  000A06  EF07  F005         	goto	u2100
  4960  000A0A                     u2101:
  4961  000A0A  EF20  F005         	goto	l212
  4962  000A0E                     u2100:
  4963  000A0E                     
  4964                           ;KeyPad_4x4_Library.c: 59:         _delay((unsigned long)((2)*(8000000/4000.0)));
  4965  000A0E  0E06               	movlw	6
  4966  000A10  6E01               	movwf	??_Keypad_Get_Char^0,c
  4967  000A12  0E30               	movlw	48
  4968  000A14                     u3047:
  4969  000A14  2EE8               	decfsz	wreg,f,c
  4970  000A16  D7FE               	bra	u3047
  4971  000A18  2E01               	decfsz	??_Keypad_Get_Char^0,f,c
  4972  000A1A  D7FC               	bra	u3047
  4973  000A1C  D000               	nop2	
  4974  000A1E                     l213:
  4975  000A1E  A681               	btfss	129,3,c	;volatile
  4976  000A20  EF14  F005         	goto	u2111
  4977  000A24  EF16  F005         	goto	u2110
  4978  000A28                     u2111:
  4979  000A28  EF0F  F005         	goto	l213
  4980  000A2C                     u2110:
  4981  000A2C                     
  4982                           ;KeyPad_4x4_Library.c: 61:         _delay((unsigned long)((5)*(8000000/4000.0)));
  4983  000A2C  0E0D               	movlw	13
  4984  000A2E  6E01               	movwf	??_Keypad_Get_Char^0,c
  4985  000A30  0EFC               	movlw	252
  4986  000A32                     u3057:
  4987  000A32  2EE8               	decfsz	wreg,f,c
  4988  000A34  D7FE               	bra	u3057
  4989  000A36  2E01               	decfsz	??_Keypad_Get_Char^0,f,c
  4990  000A38  D7FC               	bra	u3057
  4991                           
  4992                           ;KeyPad_4x4_Library.c: 62:         return '4';
  4993  000A3A  0E34               	movlw	52
  4994  000A3C  EF89  F006         	goto	l199
  4995  000A40                     l212:
  4996                           
  4997                           ;KeyPad_4x4_Library.c: 64:     if(PORTBbits.RB2 == 0){
  4998  000A40  B481               	btfsc	129,2,c	;volatile
  4999  000A42  EF25  F005         	goto	u2121
  5000  000A46  EF27  F005         	goto	u2120
  5001  000A4A                     u2121:
  5002  000A4A  EF40  F005         	goto	l216
  5003  000A4E                     u2120:
  5004  000A4E                     
  5005                           ;KeyPad_4x4_Library.c: 65:         _delay((unsigned long)((2)*(8000000/4000.0)));
  5006  000A4E  0E06               	movlw	6
  5007  000A50  6E01               	movwf	??_Keypad_Get_Char^0,c
  5008  000A52  0E30               	movlw	48
  5009  000A54                     u3067:
  5010  000A54  2EE8               	decfsz	wreg,f,c
  5011  000A56  D7FE               	bra	u3067
  5012  000A58  2E01               	decfsz	??_Keypad_Get_Char^0,f,c
  5013  000A5A  D7FC               	bra	u3067
  5014  000A5C  D000               	nop2	
  5015  000A5E                     l217:
  5016  000A5E  A481               	btfss	129,2,c	;volatile
  5017  000A60  EF34  F005         	goto	u2131
  5018  000A64  EF36  F005         	goto	u2130
  5019  000A68                     u2131:
  5020  000A68  EF2F  F005         	goto	l217
  5021  000A6C                     u2130:
  5022  000A6C                     
  5023                           ;KeyPad_4x4_Library.c: 67:         _delay((unsigned long)((5)*(8000000/4000.0)));
  5024  000A6C  0E0D               	movlw	13
  5025  000A6E  6E01               	movwf	??_Keypad_Get_Char^0,c
  5026  000A70  0EFC               	movlw	252
  5027  000A72                     u3077:
  5028  000A72  2EE8               	decfsz	wreg,f,c
  5029  000A74  D7FE               	bra	u3077
  5030  000A76  2E01               	decfsz	??_Keypad_Get_Char^0,f,c
  5031  000A78  D7FC               	bra	u3077
  5032                           
  5033                           ;KeyPad_4x4_Library.c: 68:         return '5';
  5034  000A7A  0E35               	movlw	53
  5035  000A7C  EF89  F006         	goto	l199
  5036  000A80                     l216:
  5037                           
  5038                           ;KeyPad_4x4_Library.c: 70:     if(PORTBbits.RB1 == 0){
  5039  000A80  B281               	btfsc	129,1,c	;volatile
  5040  000A82  EF45  F005         	goto	u2141
  5041  000A86  EF47  F005         	goto	u2140
  5042  000A8A                     u2141:
  5043  000A8A  EF60  F005         	goto	l220
  5044  000A8E                     u2140:
  5045  000A8E                     
  5046                           ;KeyPad_4x4_Library.c: 71:         _delay((unsigned long)((2)*(8000000/4000.0)));
  5047  000A8E  0E06               	movlw	6
  5048  000A90  6E01               	movwf	??_Keypad_Get_Char^0,c
  5049  000A92  0E30               	movlw	48
  5050  000A94                     u3087:
  5051  000A94  2EE8               	decfsz	wreg,f,c
  5052  000A96  D7FE               	bra	u3087
  5053  000A98  2E01               	decfsz	??_Keypad_Get_Char^0,f,c
  5054  000A9A  D7FC               	bra	u3087
  5055  000A9C  D000               	nop2	
  5056  000A9E                     l221:
  5057  000A9E  A281               	btfss	129,1,c	;volatile
  5058  000AA0  EF54  F005         	goto	u2151
  5059  000AA4  EF56  F005         	goto	u2150
  5060  000AA8                     u2151:
  5061  000AA8  EF4F  F005         	goto	l221
  5062  000AAC                     u2150:
  5063  000AAC                     
  5064                           ;KeyPad_4x4_Library.c: 73:         _delay((unsigned long)((5)*(8000000/4000.0)));
  5065  000AAC  0E0D               	movlw	13
  5066  000AAE  6E01               	movwf	??_Keypad_Get_Char^0,c
  5067  000AB0  0EFC               	movlw	252
  5068  000AB2                     u3097:
  5069  000AB2  2EE8               	decfsz	wreg,f,c
  5070  000AB4  D7FE               	bra	u3097
  5071  000AB6  2E01               	decfsz	??_Keypad_Get_Char^0,f,c
  5072  000AB8  D7FC               	bra	u3097
  5073                           
  5074                           ;KeyPad_4x4_Library.c: 74:         return '6';
  5075  000ABA  0E36               	movlw	54
  5076  000ABC  EF89  F006         	goto	l199
  5077  000AC0                     l220:
  5078                           
  5079                           ;KeyPad_4x4_Library.c: 76:     if(PORTBbits.RB0 == 0){
  5080  000AC0  B081               	btfsc	129,0,c	;volatile
  5081  000AC2  EF65  F005         	goto	u2161
  5082  000AC6  EF67  F005         	goto	u2160
  5083  000ACA                     u2161:
  5084  000ACA  EF80  F005         	goto	l224
  5085  000ACE                     u2160:
  5086  000ACE                     
  5087                           ;KeyPad_4x4_Library.c: 77:         _delay((unsigned long)((2)*(8000000/4000.0)));
  5088  000ACE  0E06               	movlw	6
  5089  000AD0  6E01               	movwf	??_Keypad_Get_Char^0,c
  5090  000AD2  0E30               	movlw	48
  5091  000AD4                     u3107:
  5092  000AD4  2EE8               	decfsz	wreg,f,c
  5093  000AD6  D7FE               	bra	u3107
  5094  000AD8  2E01               	decfsz	??_Keypad_Get_Char^0,f,c
  5095  000ADA  D7FC               	bra	u3107
  5096  000ADC  D000               	nop2	
  5097  000ADE                     l225:
  5098  000ADE  A081               	btfss	129,0,c	;volatile
  5099  000AE0  EF74  F005         	goto	u2171
  5100  000AE4  EF76  F005         	goto	u2170
  5101  000AE8                     u2171:
  5102  000AE8  EF6F  F005         	goto	l225
  5103  000AEC                     u2170:
  5104  000AEC                     
  5105                           ;KeyPad_4x4_Library.c: 79:         _delay((unsigned long)((5)*(8000000/4000.0)));
  5106  000AEC  0E0D               	movlw	13
  5107  000AEE  6E01               	movwf	??_Keypad_Get_Char^0,c
  5108  000AF0  0EFC               	movlw	252
  5109  000AF2                     u3117:
  5110  000AF2  2EE8               	decfsz	wreg,f,c
  5111  000AF4  D7FE               	bra	u3117
  5112  000AF6  2E01               	decfsz	??_Keypad_Get_Char^0,f,c
  5113  000AF8  D7FC               	bra	u3117
  5114                           
  5115                           ;KeyPad_4x4_Library.c: 80:         return 'B';
  5116  000AFA  0E42               	movlw	66
  5117  000AFC  EF89  F006         	goto	l199
  5118  000B00                     l224:
  5119                           
  5120                           ;KeyPad_4x4_Library.c: 83:     LATBbits.LATB7 = 1;
  5121  000B00  8E8A               	bsf	138,7,c	;volatile
  5122                           
  5123                           ;KeyPad_4x4_Library.c: 84:     LATBbits.LATB6 = 1;
  5124  000B02  8C8A               	bsf	138,6,c	;volatile
  5125                           
  5126                           ;KeyPad_4x4_Library.c: 85:     LATBbits.LATB5 = 0;
  5127  000B04  9A8A               	bcf	138,5,c	;volatile
  5128                           
  5129                           ;KeyPad_4x4_Library.c: 86:     LATBbits.LATB4 = 1;
  5130  000B06  888A               	bsf	138,4,c	;volatile
  5131                           
  5132                           ;KeyPad_4x4_Library.c: 87:     if(PORTBbits.RB3 == 0){
  5133  000B08  B681               	btfsc	129,3,c	;volatile
  5134  000B0A  EF89  F005         	goto	u2181
  5135  000B0E  EF8B  F005         	goto	u2180
  5136  000B12                     u2181:
  5137  000B12  EFA4  F005         	goto	l228
  5138  000B16                     u2180:
  5139  000B16                     
  5140                           ;KeyPad_4x4_Library.c: 88:         _delay((unsigned long)((2)*(8000000/4000.0)));
  5141  000B16  0E06               	movlw	6
  5142  000B18  6E01               	movwf	??_Keypad_Get_Char^0,c
  5143  000B1A  0E30               	movlw	48
  5144  000B1C                     u3127:
  5145  000B1C  2EE8               	decfsz	wreg,f,c
  5146  000B1E  D7FE               	bra	u3127
  5147  000B20  2E01               	decfsz	??_Keypad_Get_Char^0,f,c
  5148  000B22  D7FC               	bra	u3127
  5149  000B24  D000               	nop2	
  5150  000B26                     l229:
  5151  000B26  A681               	btfss	129,3,c	;volatile
  5152  000B28  EF98  F005         	goto	u2191
  5153  000B2C  EF9A  F005         	goto	u2190
  5154  000B30                     u2191:
  5155  000B30  EF93  F005         	goto	l229
  5156  000B34                     u2190:
  5157  000B34                     
  5158                           ;KeyPad_4x4_Library.c: 90:         _delay((unsigned long)((5)*(8000000/4000.0)));
  5159  000B34  0E0D               	movlw	13
  5160  000B36  6E01               	movwf	??_Keypad_Get_Char^0,c
  5161  000B38  0EFC               	movlw	252
  5162  000B3A                     u3137:
  5163  000B3A  2EE8               	decfsz	wreg,f,c
  5164  000B3C  D7FE               	bra	u3137
  5165  000B3E  2E01               	decfsz	??_Keypad_Get_Char^0,f,c
  5166  000B40  D7FC               	bra	u3137
  5167                           
  5168                           ;KeyPad_4x4_Library.c: 91:         return '7';
  5169  000B42  0E37               	movlw	55
  5170  000B44  EF89  F006         	goto	l199
  5171  000B48                     l228:
  5172                           
  5173                           ;KeyPad_4x4_Library.c: 93:     if(PORTBbits.RB2 == 0){
  5174  000B48  B481               	btfsc	129,2,c	;volatile
  5175  000B4A  EFA9  F005         	goto	u2201
  5176  000B4E  EFAB  F005         	goto	u2200
  5177  000B52                     u2201:
  5178  000B52  EFC4  F005         	goto	l232
  5179  000B56                     u2200:
  5180  000B56                     
  5181                           ;KeyPad_4x4_Library.c: 94:         _delay((unsigned long)((2)*(8000000/4000.0)));
  5182  000B56  0E06               	movlw	6
  5183  000B58  6E01               	movwf	??_Keypad_Get_Char^0,c
  5184  000B5A  0E30               	movlw	48
  5185  000B5C                     u3147:
  5186  000B5C  2EE8               	decfsz	wreg,f,c
  5187  000B5E  D7FE               	bra	u3147
  5188  000B60  2E01               	decfsz	??_Keypad_Get_Char^0,f,c
  5189  000B62  D7FC               	bra	u3147
  5190  000B64  D000               	nop2	
  5191  000B66                     l233:
  5192  000B66  A481               	btfss	129,2,c	;volatile
  5193  000B68  EFB8  F005         	goto	u2211
  5194  000B6C  EFBA  F005         	goto	u2210
  5195  000B70                     u2211:
  5196  000B70  EFB3  F005         	goto	l233
  5197  000B74                     u2210:
  5198  000B74                     
  5199                           ;KeyPad_4x4_Library.c: 96:         _delay((unsigned long)((5)*(8000000/4000.0)));
  5200  000B74  0E0D               	movlw	13
  5201  000B76  6E01               	movwf	??_Keypad_Get_Char^0,c
  5202  000B78  0EFC               	movlw	252
  5203  000B7A                     u3157:
  5204  000B7A  2EE8               	decfsz	wreg,f,c
  5205  000B7C  D7FE               	bra	u3157
  5206  000B7E  2E01               	decfsz	??_Keypad_Get_Char^0,f,c
  5207  000B80  D7FC               	bra	u3157
  5208                           
  5209                           ;KeyPad_4x4_Library.c: 97:         return '8';
  5210  000B82  0E38               	movlw	56
  5211  000B84  EF89  F006         	goto	l199
  5212  000B88                     l232:
  5213                           
  5214                           ;KeyPad_4x4_Library.c: 99:     if(PORTBbits.RB1 == 0){
  5215  000B88  B281               	btfsc	129,1,c	;volatile
  5216  000B8A  EFC9  F005         	goto	u2221
  5217  000B8E  EFCB  F005         	goto	u2220
  5218  000B92                     u2221:
  5219  000B92  EFE4  F005         	goto	l236
  5220  000B96                     u2220:
  5221  000B96                     
  5222                           ;KeyPad_4x4_Library.c: 100:         _delay((unsigned long)((2)*(8000000/4000.0)));
  5223  000B96  0E06               	movlw	6
  5224  000B98  6E01               	movwf	??_Keypad_Get_Char^0,c
  5225  000B9A  0E30               	movlw	48
  5226  000B9C                     u3167:
  5227  000B9C  2EE8               	decfsz	wreg,f,c
  5228  000B9E  D7FE               	bra	u3167
  5229  000BA0  2E01               	decfsz	??_Keypad_Get_Char^0,f,c
  5230  000BA2  D7FC               	bra	u3167
  5231  000BA4  D000               	nop2	
  5232  000BA6                     l237:
  5233  000BA6  A281               	btfss	129,1,c	;volatile
  5234  000BA8  EFD8  F005         	goto	u2231
  5235  000BAC  EFDA  F005         	goto	u2230
  5236  000BB0                     u2231:
  5237  000BB0  EFD3  F005         	goto	l237
  5238  000BB4                     u2230:
  5239  000BB4                     
  5240                           ;KeyPad_4x4_Library.c: 102:         _delay((unsigned long)((5)*(8000000/4000.0)));
  5241  000BB4  0E0D               	movlw	13
  5242  000BB6  6E01               	movwf	??_Keypad_Get_Char^0,c
  5243  000BB8  0EFC               	movlw	252
  5244  000BBA                     u3177:
  5245  000BBA  2EE8               	decfsz	wreg,f,c
  5246  000BBC  D7FE               	bra	u3177
  5247  000BBE  2E01               	decfsz	??_Keypad_Get_Char^0,f,c
  5248  000BC0  D7FC               	bra	u3177
  5249                           
  5250                           ;KeyPad_4x4_Library.c: 103:         return '9';
  5251  000BC2  0E39               	movlw	57
  5252  000BC4  EF89  F006         	goto	l199
  5253  000BC8                     l236:
  5254                           
  5255                           ;KeyPad_4x4_Library.c: 105:     if(PORTBbits.RB0 == 0){
  5256  000BC8  B081               	btfsc	129,0,c	;volatile
  5257  000BCA  EFE9  F005         	goto	u2241
  5258  000BCE  EFEB  F005         	goto	u2240
  5259  000BD2                     u2241:
  5260  000BD2  EF04  F006         	goto	l240
  5261  000BD6                     u2240:
  5262  000BD6                     
  5263                           ;KeyPad_4x4_Library.c: 106:         _delay((unsigned long)((2)*(8000000/4000.0)));
  5264  000BD6  0E06               	movlw	6
  5265  000BD8  6E01               	movwf	??_Keypad_Get_Char^0,c
  5266  000BDA  0E30               	movlw	48
  5267  000BDC                     u3187:
  5268  000BDC  2EE8               	decfsz	wreg,f,c
  5269  000BDE  D7FE               	bra	u3187
  5270  000BE0  2E01               	decfsz	??_Keypad_Get_Char^0,f,c
  5271  000BE2  D7FC               	bra	u3187
  5272  000BE4  D000               	nop2	
  5273  000BE6                     l241:
  5274  000BE6  A081               	btfss	129,0,c	;volatile
  5275  000BE8  EFF8  F005         	goto	u2251
  5276  000BEC  EFFA  F005         	goto	u2250
  5277  000BF0                     u2251:
  5278  000BF0  EFF3  F005         	goto	l241
  5279  000BF4                     u2250:
  5280  000BF4                     
  5281                           ;KeyPad_4x4_Library.c: 108:         _delay((unsigned long)((5)*(8000000/4000.0)));
  5282  000BF4  0E0D               	movlw	13
  5283  000BF6  6E01               	movwf	??_Keypad_Get_Char^0,c
  5284  000BF8  0EFC               	movlw	252
  5285  000BFA                     u3197:
  5286  000BFA  2EE8               	decfsz	wreg,f,c
  5287  000BFC  D7FE               	bra	u3197
  5288  000BFE  2E01               	decfsz	??_Keypad_Get_Char^0,f,c
  5289  000C00  D7FC               	bra	u3197
  5290                           
  5291                           ;KeyPad_4x4_Library.c: 109:         return 'C';
  5292  000C02  0E43               	movlw	67
  5293  000C04  EF89  F006         	goto	l199
  5294  000C08                     l240:
  5295                           
  5296                           ;KeyPad_4x4_Library.c: 112:     LATBbits.LATB7 = 1;
  5297  000C08  8E8A               	bsf	138,7,c	;volatile
  5298                           
  5299                           ;KeyPad_4x4_Library.c: 113:     LATBbits.LATB6 = 1;
  5300  000C0A  8C8A               	bsf	138,6,c	;volatile
  5301                           
  5302                           ;KeyPad_4x4_Library.c: 114:     LATBbits.LATB5 = 1;
  5303  000C0C  8A8A               	bsf	138,5,c	;volatile
  5304                           
  5305                           ;KeyPad_4x4_Library.c: 115:     LATBbits.LATB4 = 0;
  5306  000C0E  988A               	bcf	138,4,c	;volatile
  5307                           
  5308                           ;KeyPad_4x4_Library.c: 116:     if(PORTBbits.RB3 == 0){
  5309  000C10  B681               	btfsc	129,3,c	;volatile
  5310  000C12  EF0D  F006         	goto	u2261
  5311  000C16  EF0F  F006         	goto	u2260
  5312  000C1A                     u2261:
  5313  000C1A  EF28  F006         	goto	l244
  5314  000C1E                     u2260:
  5315  000C1E                     
  5316                           ;KeyPad_4x4_Library.c: 117:         _delay((unsigned long)((2)*(8000000/4000.0)));
  5317  000C1E  0E06               	movlw	6
  5318  000C20  6E01               	movwf	??_Keypad_Get_Char^0,c
  5319  000C22  0E30               	movlw	48
  5320  000C24                     u3207:
  5321  000C24  2EE8               	decfsz	wreg,f,c
  5322  000C26  D7FE               	bra	u3207
  5323  000C28  2E01               	decfsz	??_Keypad_Get_Char^0,f,c
  5324  000C2A  D7FC               	bra	u3207
  5325  000C2C  D000               	nop2	
  5326  000C2E                     l245:
  5327  000C2E  A681               	btfss	129,3,c	;volatile
  5328  000C30  EF1C  F006         	goto	u2271
  5329  000C34  EF1E  F006         	goto	u2270
  5330  000C38                     u2271:
  5331  000C38  EF17  F006         	goto	l245
  5332  000C3C                     u2270:
  5333  000C3C                     
  5334                           ;KeyPad_4x4_Library.c: 119:         _delay((unsigned long)((5)*(8000000/4000.0)));
  5335  000C3C  0E0D               	movlw	13
  5336  000C3E  6E01               	movwf	??_Keypad_Get_Char^0,c
  5337  000C40  0EFC               	movlw	252
  5338  000C42                     u3217:
  5339  000C42  2EE8               	decfsz	wreg,f,c
  5340  000C44  D7FE               	bra	u3217
  5341  000C46  2E01               	decfsz	??_Keypad_Get_Char^0,f,c
  5342  000C48  D7FC               	bra	u3217
  5343                           
  5344                           ;KeyPad_4x4_Library.c: 120:         return '*';
  5345  000C4A  0E2A               	movlw	42
  5346  000C4C  EF89  F006         	goto	l199
  5347  000C50                     l244:
  5348                           
  5349                           ;KeyPad_4x4_Library.c: 122:     if(PORTBbits.RB2 == 0){
  5350  000C50  B481               	btfsc	129,2,c	;volatile
  5351  000C52  EF2D  F006         	goto	u2281
  5352  000C56  EF2F  F006         	goto	u2280
  5353  000C5A                     u2281:
  5354  000C5A  EF48  F006         	goto	l248
  5355  000C5E                     u2280:
  5356  000C5E                     
  5357                           ;KeyPad_4x4_Library.c: 123:         _delay((unsigned long)((2)*(8000000/4000.0)));
  5358  000C5E  0E06               	movlw	6
  5359  000C60  6E01               	movwf	??_Keypad_Get_Char^0,c
  5360  000C62  0E30               	movlw	48
  5361  000C64                     u3227:
  5362  000C64  2EE8               	decfsz	wreg,f,c
  5363  000C66  D7FE               	bra	u3227
  5364  000C68  2E01               	decfsz	??_Keypad_Get_Char^0,f,c
  5365  000C6A  D7FC               	bra	u3227
  5366  000C6C  D000               	nop2	
  5367  000C6E                     l249:
  5368  000C6E  A481               	btfss	129,2,c	;volatile
  5369  000C70  EF3C  F006         	goto	u2291
  5370  000C74  EF3E  F006         	goto	u2290
  5371  000C78                     u2291:
  5372  000C78  EF37  F006         	goto	l249
  5373  000C7C                     u2290:
  5374  000C7C                     
  5375                           ;KeyPad_4x4_Library.c: 125:         _delay((unsigned long)((5)*(8000000/4000.0)));
  5376  000C7C  0E0D               	movlw	13
  5377  000C7E  6E01               	movwf	??_Keypad_Get_Char^0,c
  5378  000C80  0EFC               	movlw	252
  5379  000C82                     u3237:
  5380  000C82  2EE8               	decfsz	wreg,f,c
  5381  000C84  D7FE               	bra	u3237
  5382  000C86  2E01               	decfsz	??_Keypad_Get_Char^0,f,c
  5383  000C88  D7FC               	bra	u3237
  5384                           
  5385                           ;KeyPad_4x4_Library.c: 126:         return '0';
  5386  000C8A  0E30               	movlw	48
  5387  000C8C  EF89  F006         	goto	l199
  5388  000C90                     l248:
  5389                           
  5390                           ;KeyPad_4x4_Library.c: 128:     if(PORTBbits.RB1 == 0){
  5391  000C90  B281               	btfsc	129,1,c	;volatile
  5392  000C92  EF4D  F006         	goto	u2301
  5393  000C96  EF4F  F006         	goto	u2300
  5394  000C9A                     u2301:
  5395  000C9A  EF68  F006         	goto	l252
  5396  000C9E                     u2300:
  5397  000C9E                     
  5398                           ;KeyPad_4x4_Library.c: 129:         _delay((unsigned long)((2)*(8000000/4000.0)));
  5399  000C9E  0E06               	movlw	6
  5400  000CA0  6E01               	movwf	??_Keypad_Get_Char^0,c
  5401  000CA2  0E30               	movlw	48
  5402  000CA4                     u3247:
  5403  000CA4  2EE8               	decfsz	wreg,f,c
  5404  000CA6  D7FE               	bra	u3247
  5405  000CA8  2E01               	decfsz	??_Keypad_Get_Char^0,f,c
  5406  000CAA  D7FC               	bra	u3247
  5407  000CAC  D000               	nop2	
  5408  000CAE                     l253:
  5409  000CAE  A281               	btfss	129,1,c	;volatile
  5410  000CB0  EF5C  F006         	goto	u2311
  5411  000CB4  EF5E  F006         	goto	u2310
  5412  000CB8                     u2311:
  5413  000CB8  EF57  F006         	goto	l253
  5414  000CBC                     u2310:
  5415  000CBC                     
  5416                           ;KeyPad_4x4_Library.c: 131:         _delay((unsigned long)((5)*(8000000/4000.0)));
  5417  000CBC  0E0D               	movlw	13
  5418  000CBE  6E01               	movwf	??_Keypad_Get_Char^0,c
  5419  000CC0  0EFC               	movlw	252
  5420  000CC2                     u3257:
  5421  000CC2  2EE8               	decfsz	wreg,f,c
  5422  000CC4  D7FE               	bra	u3257
  5423  000CC6  2E01               	decfsz	??_Keypad_Get_Char^0,f,c
  5424  000CC8  D7FC               	bra	u3257
  5425                           
  5426                           ;KeyPad_4x4_Library.c: 132:         return '#';
  5427  000CCA  0E23               	movlw	35
  5428  000CCC  EF89  F006         	goto	l199
  5429  000CD0                     l252:
  5430                           
  5431                           ;KeyPad_4x4_Library.c: 134:     if(PORTBbits.RB0 == 0){
  5432  000CD0  B081               	btfsc	129,0,c	;volatile
  5433  000CD2  EF6D  F006         	goto	u2321
  5434  000CD6  EF6F  F006         	goto	u2320
  5435  000CDA                     u2321:
  5436  000CDA  EF88  F006         	goto	l2530
  5437  000CDE                     u2320:
  5438  000CDE                     
  5439                           ;KeyPad_4x4_Library.c: 135:         _delay((unsigned long)((2)*(8000000/4000.0)));
  5440  000CDE  0E06               	movlw	6
  5441  000CE0  6E01               	movwf	??_Keypad_Get_Char^0,c
  5442  000CE2  0E30               	movlw	48
  5443  000CE4                     u3267:
  5444  000CE4  2EE8               	decfsz	wreg,f,c
  5445  000CE6  D7FE               	bra	u3267
  5446  000CE8  2E01               	decfsz	??_Keypad_Get_Char^0,f,c
  5447  000CEA  D7FC               	bra	u3267
  5448  000CEC  D000               	nop2	
  5449  000CEE                     l257:
  5450  000CEE  A081               	btfss	129,0,c	;volatile
  5451  000CF0  EF7C  F006         	goto	u2331
  5452  000CF4  EF7E  F006         	goto	u2330
  5453  000CF8                     u2331:
  5454  000CF8  EF77  F006         	goto	l257
  5455  000CFC                     u2330:
  5456  000CFC                     
  5457                           ;KeyPad_4x4_Library.c: 137:         _delay((unsigned long)((5)*(8000000/4000.0)));
  5458  000CFC  0E0D               	movlw	13
  5459  000CFE  6E01               	movwf	??_Keypad_Get_Char^0,c
  5460  000D00  0EFC               	movlw	252
  5461  000D02                     u3277:
  5462  000D02  2EE8               	decfsz	wreg,f,c
  5463  000D04  D7FE               	bra	u3277
  5464  000D06  2E01               	decfsz	??_Keypad_Get_Char^0,f,c
  5465  000D08  D7FC               	bra	u3277
  5466                           
  5467                           ;KeyPad_4x4_Library.c: 138:         return 'D';
  5468  000D0A  0E44               	movlw	68
  5469  000D0C  EF89  F006         	goto	l199
  5470  000D10                     l2530:
  5471                           
  5472                           ;KeyPad_4x4_Library.c: 140:     return 0;
  5473  000D10  0E00               	movlw	0
  5474  000D12                     l199:
  5475  000D12  0012               	return		;funcret
  5476  000D14                     __end_of_Keypad_Get_Char:
  5477                           	callstack 0
  5478                           
  5479                           	psect	rparam
  5480  0000                     
  5481                           	psect	idloc
  5482                           
  5483                           ;Config register IDLOC0 @ 0x200000
  5484                           ;	unspecified, using default values
  5485  200000                     	org	2097152
  5486  200000  FF                 	db	255
  5487                           
  5488                           ;Config register IDLOC1 @ 0x200001
  5489                           ;	unspecified, using default values
  5490  200001                     	org	2097153
  5491  200001  FF                 	db	255
  5492                           
  5493                           ;Config register IDLOC2 @ 0x200002
  5494                           ;	unspecified, using default values
  5495  200002                     	org	2097154
  5496  200002  FF                 	db	255
  5497                           
  5498                           ;Config register IDLOC3 @ 0x200003
  5499                           ;	unspecified, using default values
  5500  200003                     	org	2097155
  5501  200003  FF                 	db	255
  5502                           
  5503                           ;Config register IDLOC4 @ 0x200004
  5504                           ;	unspecified, using default values
  5505  200004                     	org	2097156
  5506  200004  FF                 	db	255
  5507                           
  5508                           ;Config register IDLOC5 @ 0x200005
  5509                           ;	unspecified, using default values
  5510  200005                     	org	2097157
  5511  200005  FF                 	db	255
  5512                           
  5513                           ;Config register IDLOC6 @ 0x200006
  5514                           ;	unspecified, using default values
  5515  200006                     	org	2097158
  5516  200006  FF                 	db	255
  5517                           
  5518                           ;Config register IDLOC7 @ 0x200007
  5519                           ;	unspecified, using default values
  5520  200007                     	org	2097159
  5521  200007  FF                 	db	255
  5522                           
  5523                           	psect	config
  5524                           
  5525                           ;Config register CONFIG1L @ 0x300000
  5526                           ;	PLL Prescaler Selection bits
  5527                           ;	PLLDIV = 1, No prescale (4 MHz oscillator input drives PLL directly)
  5528                           ;	System Clock Postscaler Selection bits
  5529                           ;	CPUDIV = OSC1_PLL2, [Primary Oscillator Src: /1][96 MHz PLL Src: /2]
  5530                           ;	USB Clock Selection bit (used in Full-Speed USB mode only; UCFG:FSEN = 1)
  5531                           ;	USBDIV = 1, USB clock source comes directly from the primary oscillator block with no 
      +                          postscale
  5532  300000                     	org	3145728
  5533  300000  00                 	db	0
  5534                           
  5535                           ;Config register CONFIG1H @ 0x300001
  5536                           ;	Oscillator Selection bits
  5537                           ;	FOSC = INTOSCIO_EC, Internal oscillator, port function on RA6, EC used by USB (INTIO)
  5538                           ;	Fail-Safe Clock Monitor Enable bit
  5539                           ;	FCMEN = OFF, Fail-Safe Clock Monitor disabled
  5540                           ;	Internal/External Oscillator Switchover bit
  5541                           ;	IESO = OFF, Oscillator Switchover mode disabled
  5542  300001                     	org	3145729
  5543  300001  08                 	db	8
  5544                           
  5545                           ;Config register CONFIG2L @ 0x300002
  5546                           ;	Power-up Timer Enable bit
  5547                           ;	PWRT = OFF, PWRT disabled
  5548                           ;	Brown-out Reset Enable bits
  5549                           ;	BOR = OFF, Brown-out Reset disabled in hardware and software
  5550                           ;	Brown-out Reset Voltage bits
  5551                           ;	BORV = 3, Minimum setting 2.05V
  5552                           ;	USB Voltage Regulator Enable bit
  5553                           ;	VREGEN = OFF, USB voltage regulator disabled
  5554  300002                     	org	3145730
  5555  300002  19                 	db	25
  5556                           
  5557                           ;Config register CONFIG2H @ 0x300003
  5558                           ;	Watchdog Timer Enable bit
  5559                           ;	WDT = OFF, WDT disabled (control is placed on the SWDTEN bit)
  5560                           ;	Watchdog Timer Postscale Select bits
  5561                           ;	WDTPS = 32768, 1:32768
  5562  300003                     	org	3145731
  5563  300003  1E                 	db	30
  5564                           
  5565                           ; Padding undefined space
  5566  300004                     	org	3145732
  5567  300004  FF                 	db	255
  5568                           
  5569                           ;Config register CONFIG3H @ 0x300005
  5570                           ;	CCP2 MUX bit
  5571                           ;	CCP2MX = ON, CCP2 input/output is multiplexed with RC1
  5572                           ;	PORTB A/D Enable bit
  5573                           ;	PBADEN = OFF, PORTB<4:0> pins are configured as digital I/O on Reset
  5574                           ;	Low-Power Timer 1 Oscillator Enable bit
  5575                           ;	LPT1OSC = OFF, Timer1 configured for higher power operation
  5576                           ;	MCLR Pin Enable bit
  5577                           ;	MCLRE = OFF, RE3 input pin enabled; MCLR pin disabled
  5578  300005                     	org	3145733
  5579  300005  01                 	db	1
  5580                           
  5581                           ;Config register CONFIG4L @ 0x300006
  5582                           ;	Stack Full/Underflow Reset Enable bit
  5583                           ;	STVREN = ON, Stack full/underflow will cause Reset
  5584                           ;	Single-Supply ICSP Enable bit
  5585                           ;	LVP = OFF, Single-Supply ICSP disabled
  5586                           ;	Dedicated In-Circuit Debug/Programming Port (ICPORT) Enable bit
  5587                           ;	ICPRT = OFF, ICPORT disabled
  5588                           ;	Extended Instruction Set Enable bit
  5589                           ;	XINST = OFF, Instruction set extension and Indexed Addressing mode disabled (Legacy mo
      +                          de)
  5590                           ;	Background Debugger Enable bit
  5591                           ;	DEBUG = 0x1, unprogrammed default
  5592  300006                     	org	3145734
  5593  300006  81                 	db	129
  5594                           
  5595                           ; Padding undefined space
  5596  300007                     	org	3145735
  5597  300007  FF                 	db	255
  5598                           
  5599                           ;Config register CONFIG5L @ 0x300008
  5600                           ;	Code Protection bit
  5601                           ;	CP0 = OFF, Block 0 (000800-001FFFh) is not code-protected
  5602                           ;	Code Protection bit
  5603                           ;	CP1 = OFF, Block 1 (002000-003FFFh) is not code-protected
  5604                           ;	Code Protection bit
  5605                           ;	CP2 = OFF, Block 2 (004000-005FFFh) is not code-protected
  5606                           ;	Code Protection bit
  5607                           ;	CP3 = OFF, Block 3 (006000-007FFFh) is not code-protected
  5608  300008                     	org	3145736
  5609  300008  0F                 	db	15
  5610                           
  5611                           ;Config register CONFIG5H @ 0x300009
  5612                           ;	Boot Block Code Protection bit
  5613                           ;	CPB = OFF, Boot block (000000-0007FFh) is not code-protected
  5614                           ;	Data EEPROM Code Protection bit
  5615                           ;	CPD = OFF, Data EEPROM is not code-protected
  5616  300009                     	org	3145737
  5617  300009  C0                 	db	192
  5618                           
  5619                           ;Config register CONFIG6L @ 0x30000A
  5620                           ;	Write Protection bit
  5621                           ;	WRT0 = OFF, Block 0 (000800-001FFFh) is not write-protected
  5622                           ;	Write Protection bit
  5623                           ;	WRT1 = OFF, Block 1 (002000-003FFFh) is not write-protected
  5624                           ;	Write Protection bit
  5625                           ;	WRT2 = OFF, Block 2 (004000-005FFFh) is not write-protected
  5626                           ;	Write Protection bit
  5627                           ;	WRT3 = OFF, Block 3 (006000-007FFFh) is not write-protected
  5628  30000A                     	org	3145738
  5629  30000A  0F                 	db	15
  5630                           
  5631                           ;Config register CONFIG6H @ 0x30000B
  5632                           ;	Configuration Register Write Protection bit
  5633                           ;	WRTC = OFF, Configuration registers (300000-3000FFh) are not write-protected
  5634                           ;	Boot Block Write Protection bit
  5635                           ;	WRTB = OFF, Boot block (000000-0007FFh) is not write-protected
  5636                           ;	Data EEPROM Write Protection bit
  5637                           ;	WRTD = OFF, Data EEPROM is not write-protected
  5638  30000B                     	org	3145739
  5639  30000B  E0                 	db	224
  5640                           
  5641                           ;Config register CONFIG7L @ 0x30000C
  5642                           ;	Table Read Protection bit
  5643                           ;	EBTR0 = OFF, Block 0 (000800-001FFFh) is not protected from table reads executed in ot
      +                          her blocks
  5644                           ;	Table Read Protection bit
  5645                           ;	EBTR1 = OFF, Block 1 (002000-003FFFh) is not protected from table reads executed in ot
      +                          her blocks
  5646                           ;	Table Read Protection bit
  5647                           ;	EBTR2 = OFF, Block 2 (004000-005FFFh) is not protected from table reads executed in ot
      +                          her blocks
  5648                           ;	Table Read Protection bit
  5649                           ;	EBTR3 = OFF, Block 3 (006000-007FFFh) is not protected from table reads executed in ot
      +                          her blocks
  5650  30000C                     	org	3145740
  5651  30000C  0F                 	db	15
  5652                           
  5653                           ;Config register CONFIG7H @ 0x30000D
  5654                           ;	Boot Block Table Read Protection bit
  5655                           ;	EBTRB = OFF, Boot block (000000-0007FFh) is not protected from table reads executed in
      +                           other blocks
  5656  30000D                     	org	3145741
  5657  30000D  40                 	db	64
  5658                           tosu	equ	0xFFF
  5659                           tosh	equ	0xFFE
  5660                           tosl	equ	0xFFD
  5661                           stkptr	equ	0xFFC
  5662                           pclatu	equ	0xFFB
  5663                           pclath	equ	0xFFA
  5664                           pcl	equ	0xFF9
  5665                           tblptru	equ	0xFF8
  5666                           tblptrh	equ	0xFF7
  5667                           tblptrl	equ	0xFF6
  5668                           tablat	equ	0xFF5
  5669                           prodh	equ	0xFF4
  5670                           prodl	equ	0xFF3
  5671                           indf0	equ	0xFEF
  5672                           postinc0	equ	0xFEE
  5673                           postdec0	equ	0xFED
  5674                           preinc0	equ	0xFEC
  5675                           plusw0	equ	0xFEB
  5676                           fsr0h	equ	0xFEA
  5677                           fsr0l	equ	0xFE9
  5678                           wreg	equ	0xFE8
  5679                           indf1	equ	0xFE7
  5680                           postinc1	equ	0xFE6
  5681                           postdec1	equ	0xFE5
  5682                           preinc1	equ	0xFE4
  5683                           plusw1	equ	0xFE3
  5684                           fsr1h	equ	0xFE2
  5685                           fsr1l	equ	0xFE1
  5686                           bsr	equ	0xFE0
  5687                           indf2	equ	0xFDF
  5688                           postinc2	equ	0xFDE
  5689                           postdec2	equ	0xFDD
  5690                           preinc2	equ	0xFDC
  5691                           plusw2	equ	0xFDB
  5692                           fsr2h	equ	0xFDA
  5693                           fsr2l	equ	0xFD9
  5694                           status	equ	0xFD8

Data Sizes:
    Strings     237
    Constant    0
    Data        17
    BSS         79
    Persistent  0
    Stack       0

Auto Spaces:
    Space          Size  Autos    Used
    COMRAM           95     95      95
    BANK0           160     65     129
    BANK1           256      0      32
    BANK2           256      0       0
    BANK3           256      0       0
    BANK4           256      0       0
    BANK5           256      0       0
    BANK6           256      0       0
    BANK7           256      0       0

Pointer List with Targets:

    strlen@s	PTR const unsigned char  size(2) Largest target is 32
		 -> dbuf(BANK1[32]), 

    strlen@a	PTR const unsigned char  size(2) Largest target is 32
		 -> dbuf(BANK1[32]), 

    strcmp@r	PTR const unsigned char  size(2) Largest target is 5
		 -> clave(BANK0[5]), 

    strcmp@l	PTR const unsigned char  size(2) Largest target is 5
		 -> Password(BANK0[5]), 

    fputs@s	PTR const unsigned char  size(2) Largest target is 32
		 -> dbuf(BANK1[32]), 

    fputs@fp	PTR struct _IO_FILE size(2) Largest target is 11
		 -> sprintf@f(BANK0[11]), 

    fputc@fp...source	PTR const unsigned char  size(2) Largest target is 0

    fputc@fp...buffer	PTR unsigned char  size(2) Largest target is 0

    fputc@fp	PTR struct _IO_FILE size(2) Largest target is 11
		 -> sprintf@f(BANK0[11]), 

    vfprintf@ap	PTR PTR void  size(2) Largest target is 2
		 -> sprintf@ap(BANK0[2]), 

    vfprintf@fp	PTR struct _IO_FILE size(2) Largest target is 11
		 -> sprintf@f(BANK0[11]), 

    vfprintf@fmt	PTR const unsigned char  size(2) Largest target is 16
		 -> STR_21(CODE[12]), STR_20(CODE[8]), STR_18(CODE[9]), STR_17(CODE[8]), 
		 -> STR_14(CODE[9]), STR_13(CODE[8]), STR_11(CODE[16]), 

    vfprintf@cfmt	PTR unsigned char  size(2) Largest target is 16
		 -> STR_21(CODE[12]), STR_20(CODE[8]), STR_18(CODE[9]), STR_17(CODE[8]), 
		 -> STR_14(CODE[9]), STR_13(CODE[8]), STR_11(CODE[16]), 

    vfpfcnvrt@fp	PTR struct _IO_FILE size(2) Largest target is 11
		 -> sprintf@f(BANK0[11]), 

    vfpfcnvrt@ap	PTR PTR void  size(2) Largest target is 2
		 -> sprintf@ap(BANK0[2]), 

    vfpfcnvrt@fmt	PTR PTR unsigned char  size(2) Largest target is 2
		 -> vfprintf@cfmt(COMRAM[2]), 

    dtoa@fp	PTR struct _IO_FILE size(2) Largest target is 11
		 -> sprintf@f(BANK0[11]), 

    pad@fp	PTR struct _IO_FILE size(2) Largest target is 11
		 -> sprintf@f(BANK0[11]), 

    pad@buf	PTR unsigned char  size(2) Largest target is 32
		 -> dbuf(BANK1[32]), 

    sprintf@fmt	PTR const unsigned char  size(2) Largest target is 16
		 -> STR_21(CODE[12]), STR_20(CODE[8]), STR_18(CODE[9]), STR_17(CODE[8]), 
		 -> STR_14(CODE[9]), STR_13(CODE[8]), STR_11(CODE[16]), 

    sprintf@s	PTR unsigned char  size(2) Largest target is 30
		 -> dht11@value(BANK0[10]), main@tiempo(BANK0[30]), 

    sprintf@ap	PTR void [1] size(2) Largest target is 2
		 -> ?_sprintf(COMRAM[2]), 

    S999$source	PTR const unsigned char  size(2) Largest target is 0

    f...source	PTR const unsigned char  size(2) Largest target is 0

    S999$buffer	PTR unsigned char  size(2) Largest target is 0

    f...buffer	PTR unsigned char  size(2) Largest target is 0

    lcd_putc@a	PTR unsigned char  size(2) Largest target is 30
		 -> STR_16(CODE[13]), dht11@value(BANK0[10]), STR_12(CODE[13]), main@tiempo(BANK0[30]), 
		 -> STR_10(CODE[15]), STR_9(CODE[17]), STR_8(CODE[16]), STR_7(CODE[17]), 
		 -> STR_6(CODE[17]), STR_5(CODE[17]), STR_4(CODE[17]), STR_3(CODE[17]), 
		 -> STR_2(CODE[15]), STR_1(CODE[16]), 


Critical Paths under _main in COMRAM

    _main->_sprintf
    _dht11->_sprintf
    _sprintf->_vfprintf
    _vfprintf->_vfpfcnvrt
    _vfpfcnvrt->_dtoa
    _dtoa->_pad
    _pad->_fputs
    _fputs->_fputc
    _abs->___aomod
    _lcd_putc->_lcd_write_char
    _lcd_write_char->_Lcd_Port
    _lcd_init->_Lcd_Cmd
    _lcd_gotoxy->_Lcd_Cmd
    _lcd_clear->_Lcd_Cmd
    _Lcd_Cmd->_Lcd_Port

Critical Paths under _main in BANK0

    _main->_dht11
    _dht11->_sprintf

Critical Paths under _main in BANK1

    None.

Critical Paths under _main in BANK2

    None.

Critical Paths under _main in BANK3

    None.

Critical Paths under _main in BANK4

    None.

Critical Paths under _main in BANK5

    None.

Critical Paths under _main in BANK6

    None.

Critical Paths under _main in BANK7

    None.

Call Graph Tables:

 ---------------------------------------------------------------------------------
 (Depth) Function   	        Calls       Base Space   Used Autos Params    Refs
 ---------------------------------------------------------------------------------
 (0) _main                                                36    36      0   23720
                                             29 BANK0     36    36      0
            _Configuracion_Registros
                    _Keypad_Get_Char
                        _Keypad_Init
                              _dht11
                          _lcd_clear
                         _lcd_gotoxy
                           _lcd_init
                           _lcd_putc
                     _lcd_write_char
                            _sprintf
                             _strcmp
 ---------------------------------------------------------------------------------
 (1) _strcmp                                               6     2      4     264
                                              0 COMRAM     6     2      4
 ---------------------------------------------------------------------------------
 (1) _dht11                                               19    19      0   11924
                                             13 BANK0     16    16      0
            _Configuracion_Registros
                _DHT11_CheckResponse
                     _DHT11_ReadData
                        _DHT11_Start
                        _LDR_funcion
                   _encender_lampara
                          _lcd_clear
                         _lcd_gotoxy
                           _lcd_init
                           _lcd_putc
                            _sprintf
 ---------------------------------------------------------------------------------
 (1) _sprintf                                             23    15      8    7368
                                             87 COMRAM     8     0      8
                                              0 BANK0     13    13      0
                           _vfprintf
 ---------------------------------------------------------------------------------
 (2) _vfprintf                                             8     2      6    6105
                                             79 COMRAM     8     2      6
                          _vfpfcnvrt
 ---------------------------------------------------------------------------------
 (3) _vfpfcnvrt                                           42    36      6    5751
                                             63 COMRAM    16    10      6
                               _dtoa
                              _fputc
 ---------------------------------------------------------------------------------
 (4) _dtoa                                                36    26     10    4358
                                             27 COMRAM    36    26     10
                            ___aodiv
                            ___aomod
                                _abs
                                _pad
 ---------------------------------------------------------------------------------
 (5) _pad                                                 11     5      6    2709
                                             16 COMRAM    11     5      6
                              _fputc
                              _fputs
                             _strlen
 ---------------------------------------------------------------------------------
 (6) _strlen                                               4     2      2     166
                                              0 COMRAM     4     2      2
 ---------------------------------------------------------------------------------
 (6) _fputs                                                7     3      4    1235
                                              9 COMRAM     7     3      4
                              _fputc
 ---------------------------------------------------------------------------------
 (4) _fputc                                                9     5      4     834
                                              0 COMRAM     9     5      4
                              _putch
 ---------------------------------------------------------------------------------
 (5) _putch                                                1     1      0       0
 ---------------------------------------------------------------------------------
 (5) _abs                                                  4     2      2     142
                                             18 COMRAM     4     2      2
                            ___aomod (ARG)
 ---------------------------------------------------------------------------------
 (5) ___aomod                                             18     2     16     448
                                              0 COMRAM    18     2     16
 ---------------------------------------------------------------------------------
 (5) ___aodiv                                             26    10     16     452
                                              0 COMRAM    26    10     16
 ---------------------------------------------------------------------------------
 (1) _lcd_putc                                             6     4      2    1712
                                              4 COMRAM     6     4      2
                     _lcd_write_char
 ---------------------------------------------------------------------------------
 (1) _lcd_write_char                                       3     3      0     178
                                              1 COMRAM     3     3      0
                           _Lcd_Port
 ---------------------------------------------------------------------------------
 (1) _lcd_init                                             1     1      0     198
                                              3 COMRAM     1     1      0
                            _Lcd_Cmd
                           _Lcd_Port
 ---------------------------------------------------------------------------------
 (1) _lcd_gotoxy                                           5     4      1    1824
                                              3 COMRAM     5     4      1
                            _Lcd_Cmd
 ---------------------------------------------------------------------------------
 (1) _lcd_clear                                            0     0      0     110
                            _Lcd_Cmd
 ---------------------------------------------------------------------------------
 (2) _Lcd_Cmd                                              2     2      0     110
                                              1 COMRAM     2     2      0
                           _Lcd_Port
 ---------------------------------------------------------------------------------
 (2) _Lcd_Port                                             1     1      0      88
                                              0 COMRAM     1     1      0
 ---------------------------------------------------------------------------------
 (2) _encender_lampara                                     2     0      2      98
                                              0 COMRAM     2     0      2
 ---------------------------------------------------------------------------------
 (2) _LDR_funcion                                          5     3      2      24
                                              0 COMRAM     5     3      2
 ---------------------------------------------------------------------------------
 (2) _DHT11_Start                                          1     1      0       0
                                              0 COMRAM     1     1      0
 ---------------------------------------------------------------------------------
 (2) _DHT11_ReadData                                       2     2      0     115
                                              0 COMRAM     2     2      0
 ---------------------------------------------------------------------------------
 (2) _DHT11_CheckResponse                                  0     0      0       0
 ---------------------------------------------------------------------------------
 (2) _Configuracion_Registros                              0     0      0       0
 ---------------------------------------------------------------------------------
 (1) _Keypad_Init                                          0     0      0       0
 ---------------------------------------------------------------------------------
 (1) _Keypad_Get_Char                                      1     1      0       0
                                              0 COMRAM     1     1      0
 ---------------------------------------------------------------------------------
 Estimated maximum stack depth 6
 ---------------------------------------------------------------------------------

 Call Graph Graphs:

 _main (ROOT)
   _Configuracion_Registros
   _Keypad_Get_Char
   _Keypad_Init
   _dht11
     _Configuracion_Registros
     _DHT11_CheckResponse
     _DHT11_ReadData
     _DHT11_Start
     _LDR_funcion
     _encender_lampara
     _lcd_clear
       _Lcd_Cmd
         _Lcd_Port
     _lcd_gotoxy
       _Lcd_Cmd
     _lcd_init
       _Lcd_Cmd
       _Lcd_Port
     _lcd_putc
       _lcd_write_char
         _Lcd_Port
     _sprintf
       _vfprintf
         _vfpfcnvrt
           _dtoa
             ___aodiv
             ___aomod
             _abs
               ___aomod (ARG)
             _pad
               _fputc
                 _putch
               _fputs
                 _fputc
               _strlen
           _fputc
   _lcd_clear
   _lcd_gotoxy
   _lcd_init
   _lcd_putc
   _lcd_write_char
   _sprintf
   _strcmp

 Address spaces:
Name               Size   Autos  Total    Cost      Usage
BIGRAM             7FF      0       0      28        0.0%
EEDATA             100      0       0       0        0.0%
BITBANK7           100      0       0      18        0.0%
BANK7              100      0       0      19        0.0%
BITBANK6           100      0       0      16        0.0%
BANK6              100      0       0      17        0.0%
BITBANK5           100      0       0      14        0.0%
BANK5              100      0       0      15        0.0%
BITBANK4           100      0       0      12        0.0%
BANK4              100      0       0      13        0.0%
BITBANK3           100      0       0      10        0.0%
BANK3              100      0       0      11        0.0%
BITBANK2           100      0       0       8        0.0%
BANK2              100      0       0       9        0.0%
BITBANK1           100      0       0       6        0.0%
BANK1              100      0      20       7       12.5%
BITBANK0            A0      0       0       4        0.0%
BANK0               A0     41      81       5       80.6%
BITCOMRAM           5F      0       0       0        0.0%
COMRAM              5F     5F      5F       1      100.0%
BITBIGSFRhhh        2C      0       0      20        0.0%
BITBIGSFRhhll       2B      0       0      22        0.0%
BITBIGSFRll         20      0       0      26        0.0%
BITBIGSFRhhlh       11      0       0      21        0.0%
BITBIGSFRhlhl        5      0       0      23        0.0%
BITBIGSFRhlll        5      0       0      24        0.0%
BITBIGSFRlh          1      0       0      25        0.0%
BIGSFR               0      0       0     200        0.0%
BITSFR               0      0       0     200        0.0%
SFR                  0      0       0     200        0.0%
STACK                0      0       0       2        0.0%
NULL                 0      0       0       0        0.0%
ABS                  0      0     100      27        0.0%
DATA                 0      0     100       3        0.0%
CODE                 0      0       0       0        0.0%


Microchip Technology PIC18 Macro Assembler V2.36 build 20220127204148 
Symbol Table                                                                                   Thu Jul 14 10:01:46 2022

                              _K 00C9                               l61 1D2A  
                             l63 1D40                               l72 1FC2  
                             l65 1D56                               l81 1CB0  
                             l67 1D6C                               l75 2030  
                             l84 1BDE                               l69 1D6E  
                             l93 1B6A                               l87 1F1A  
                            l200 0978                              l201 0956  
                            l220 0AC0                              l212 0A40  
                            l204 09B8                              l132 12AC  
                            l221 0A9E                              l213 0A1E  
                            l205 0996                              l141 1438  
                            l150 1D78                              l135 203C  
                            l240 0C08                              l232 0B88  
                            l224 0B00                              l216 0A80  
                            l208 09F8                              l241 0BE6  
                            l233 0B66                              l225 0ADE  
                            l217 0A5E                              l209 09D6  
                            l161 1FE2                              l170 1F6E  
                            l155 1DA8                              l252 0CD0  
                            l244 0C50                              l236 0BC8  
                            l228 0B48                              l164 1F52  
                            l253 0CAE                              l245 0C2E  
                            l237 0BA6                              l229 0B26  
                            l173 1F7C                              l181 1FFE  
                            l158 1DCA                              l167 1F60  
                            l248 0C90                              l192 2010  
                            l176 1FA2                              l257 0CEE  
                            l249 0C6E                              l195 0938  
                            l179 1FFC                              l196 0916  
                            l199 0D12                              l376 17F8  
                            l389 195C                              l940 1E1C  
                            l970 1AB0                              l972 1AEC  
                            l980 0DBC                              l967 1A6E  
                            l978 0DB4                              l998 0FF6  
                            _RD2 007C1A                              _RD3 007C1B  
                            _RD4 007C1C                              _RD5 007C1D  
                            _RD6 007C1E                              _RD7 007C1F  
                            _abs 1EA4                              _pad 1A28  
                            wreg 000FE8                      lcd_gotoxy@a 0005  
                    lcd_gotoxy@b 0004                      lcd_gotoxy@y 0007  
                    lcd_gotoxy@z 0006                             l1011 1D0A  
                           l1012 1D12                             l1005 1670  
                           l1031 1A26                             l1016 1EDA  
                           l1042 203E                             l1050 1C4A  
                           l1019 1EE2                             ?_abs 0013  
                           l2100 180C                             l2020 195E  
                           l2110 187C                             l2102 182C  
                           l2030 19E0                             l2022 1970  
                           l1039 1E60                             l2120 18F4  
                           l2112 1884                             l2104 1830  
                           l2024 1982                             l2040 1E40  
                           l1056 1F50                             l2200 0F60  
                           l2122 1906                             l2114 1898  
                           l2106 183E                             l2026 198C  
                           l2034 1E1E                             l2042 1F1C  
                           l2210 0FAA                             l2202 0F70  
                           l2220 1D16                             l2300 1F08  
                           l2060 16A8                             l2052 1672  
                           l2116 18A6                             l2124 190C  
                           l2108 185E                             l2028 19AA  
                           l2036 1E2A                             l2044 1F28  
                           l2140 1A66                             l2132 1A28  
                           l2212 0FB6                             l2204 0F82  
                           l2230 1D50                             l2222 1D24  
                           l2302 1F0E                             l2070 1704  
                           l2062 16B6                             l2054 1676  
                           l2126 191C                             l2118 18D4  
                           l2038 1E3C                             l2046 1F2C  
                           l2150 1AD4                             l2142 1A7A  
                           l2134 1A38                             l2214 0FBE  
                           l2206 0F92                             l2310 1CBA  
                           l2400 1FE0                             l2232 1D58  
                           l2224 1D2C                             l2320 1C5E  
                           l2304 1F10                             l2080 176E  
                           l2072 170C                             l2064 16D6  
                           l2056 1684                             l2128 193C  
                           l2048 1F44                             l2144 1A8E  
                           l2136 1A4C                             l2208 0F98  
                           l2216 0FCE                             l2160 0D34  
                           l2240 14F0                             l2312 1CC8  
                           l2402 1F52                             l2410 1D86  
                           l2234 1D66                             l2226 1D3A  
                           l2330 1CA4                             l2322 1C70  
                           l2306 1F18                             l2090 17B8  
                           l2082 178E                             l2074 1720  
                           l2066 16DA                             l2058 16A4  
                           l2154 1EA4                             l2146 1A92  
                           l2138 1A5A                             l2170 0DA8  
                           l2162 0D5C                             l2250 1596  
                           l2242 1502                             l2314 1CEE  
                           l2500 0BD6                             l2420 1DB8  
                           l2412 1D8C                             l2404 1D70  
                           l2228 1D42                             l2316 2024  
                           l2332 1CAA                             l2324 1C76  
                           l2340 1B8A                             l2092 17D8  
                           l2084 1790                             l2076 172E  
                           l2068 16E6                             l2156 1EBE  
                           l2148 1AC0                             l2180 0DF2  
                           l2172 0DC4                             l2164 0D7C  
                           l2260 1614                             l2244 1506  
                           l2236 14BE                             l2308 1CB2  
                           l2502 0BF4                             l2430 2000  
                           l2422 1DC8                             l2414 1D9A  
                           l2326 1C80                             l2318 1C4E  
                           l2350 1BC0                             l2342 1B98  
                           l2334 1B6C                             l2086 17A2  
                           l2078 1740                             l2190 0E90  
                           l2182 0DFC                             l2174 0DD6  
                           l2166 0D8C                             l2158 0D14  
                           l2254 15CE                             l2246 152A  
                           l2238 14E2                             l2270 163A  
                           l2520 0CBC                             l2512 0C5E  
                           l2440 0946                             l2432 08F0  
                           l2416 1DA2                             l2280 1FA8  
                           l2328 1C92                             l2352 1BC6  
                           l2344 1BAE                             l2336 1B70  
                           l2360 1AEE                             l2088 17A8  
                           l2096 17FA                             l2184 0E02  
                           l2192 0EF4                             l2176 0DE4  
                           l2168 0D8E                             l2272 165E  
                           l2256 15F2                             l2264 1620  
                           l2248 154E                             l2600 13C2  
                           l2530 0D10                             l2514 0C7C  
                           l2506 0C1E                             l2442 0964  
                           l2434 0906                             l2370 2036  
                           l2418 1DB6                             l2426 1FE4  
                           l2282 1FAE                             l2354 1BCC  
                           l2346 1BB4                             l2338 1B76  
                           l2290 1EF2                             l2362 1AFA  
                           l2098 17FE                             l2194 0F0E  
                           l2186 0E84                             l2178 0DEA  
                           l2266 162E                             l2258 1600  
                           l2610 1408                             l2602 13CC  
                           l2524 0CDE                             l2508 0C3C  
                           l2460 0A2C                             l2452 09C6  
                           l2436 0924                             l2372 203A  
                           l2428 1FF6                             l2284 1FB0  
                           l2356 1BD2                             l2348 1BBA  
                           l2292 1EF4                             l2364 1B2A  
                           l2196 0F2C                             l2188 0E8A  
                           l2380 1DEE                             l2620 1440  
                           l2612 1412                             l2604 13D8  
                           l2540 1C0E                             l2700 1162  
                           l2526 0CFC                             l2518 0C9E  
                           l2470 0A8E                             l2454 09E4  
                           l2446 0986                             l2390 1F9A  
                           l2286 1FC0                             l2278 1FA6  
                           l2358 1BD8                             l2294 1EFC  
                           l2366 1B2E                             l2198 0F46  
                           l2382 1E0A                             l2374 1DCC  
                           l2630 149E                             l2622 145A  
                           l2606 13E2                             l2550 12B4  
                           l2542 1C26                             l2534 1BE0  
                           l2710 11A2                             l2702 116E  
                           l2472 0AAC                             l2464 0A4E  
                           l2448 09A4                             l2368 2032  
                           l2296 1EFE                             l2288 1EE6  
                           l2376 1DDE                             l2624 1466  
                           l2608 13FC                             l2560 12D4  
                           l2552 12B8                             l2536 1BE4  
                           l2720 11BE                             l2712 11A4  
                           l2704 1184                             l2640 100A  
                           l2490 0B74                             l2482 0B16  
                           l2466 0A6C                             l2458 0A0E  
                           l2394 1FC4                             l2386 1F7E  
                           l2298 1F06                             l2378 1DE6  
                           l2626 1470                             l2618 143C  
                           l2570 12F4                             l2562 12D8  
                           l2554 12C4                             l2546 12B0  
                           l2538 1BEC                             l2730 1212  
                           l2722 11CA                             l2714 11A6  
                           l2706 1186                             l2650 101A  
                           l2642 100E                             l2484 0B34  
                           l2476 0ACE                             l2396 1FC8  
                           l2388 1F7E                             l2628 1492  
                           l2580 1324                             l2572 1306  
                           l2564 12E0                             l2556 12C8  
                           l2548 12B0                             l2740 122A  
                           l2732 1216                             l2724 11D4  
                           l2708 1188                             l2716 11AE  
                           l2660 104A                             l2652 101E  
                           l2644 1012                             l2636 0FF8  
                           l2494 0B96                             l2478 0AEC  
                           l2398 1FD6                             l2590 1380  
                           l2582 132E                             l2574 130A  
                           l2566 12E4                             l2558 12CC  
                           l2750 1282                             l2742 1236  
                           l2726 11E0                             l2718 11B4  
                           l2670 1090                             l2662 1064  
                           l2654 1028                             l2646 1016  
                           l2638 1006                             l2496 0BB4  
                           l2488 0B56                             l2592 138C  
                           l2584 1348                             l2576 130E  
                           l2568 12E8                             l2752 1286  
                           l2744 1240                             l2728 11E2  
                           l2680 10D0                             l2672 10AA  
                           l2664 106E                             l2656 1034  
                           l2648 1018                             l2586 1354  
                           l2578 1318                             l2594 13AA  
                           l2754 128E                             l2746 125C  
                           l2738 1220                             l2682 10E0  
                           l2690 1104                             l2674 10AE  
                           l2666 107A                             l2658 103E  
                           l2596 13BA                             l2588 135E  
                           l2748 1268                             l2756 12A0  
                           l2692 1116                             l2684 10F0  
                           l2676 10B8                             l2668 1084  
                           l2598 13BE                             l2758 12A6  
                           l2694 112E                             l2686 10FA  
                           l2678 10C8                             ?_pad 0011  
                           l2696 1132                             l2688 1100  
                           l2698 1158                             STR_1 0877  
                           STR_2 0897                             STR_3 0801  
                           STR_4 0834                             STR_5 0856  
                           STR_6 0845                             STR_7 0823  
                           STR_8 0867                             STR_9 0812  
                           u2000 1DC8                             u2001 1DC4  
                           u2010 1FF6                             u2011 1FF2  
                           u2100 0A0E                             u2020 0906  
                           u2101 0A0A                             u2021 0902  
                           u2110 0A2C                             u2030 0924  
                           u2111 0A28                             u2031 0920  
                           u2200 0B56                             u2120 0A4E  
                           u2040 0946                             u1400 1970  
                           u2201 0B52                             u2121 0A4A  
                           u2041 0942                             u1401 196C  
                           u2210 0B74                             u2130 0A6C  
                           u2050 0964                             u1410 1982  
                           u2211 0B70                             u2131 0A68  
                           u2051 0960                             u1411 197E  
                           u2300 0C9E                             u2220 0B96  
                           u2140 0A8E                             u2060 0986  
                           u1500 172E                             u1420 19AA  
                           u2301 0C9A                             u2221 0B92  
                           u2141 0A8A                             u2061 0982  
                           u1501 172A                             u1421 19A6  
                           u2310 0CBC                             u2230 0BB4  
                           u2150 0AAC                             u2070 09A4  
                           u1510 176E                             u1430 19E0  
                           u2311 0CB8                             u2231 0BB0  
                           u2151 0AA8                             u2071 09A0  
                           u3007 098C                             u1511 176A  
                           u1431 19DC                             _LATC 000F8B  
                           u2320 0CDE                             u2240 0BD6  
                           u2160 0ACE                             u2080 09C6  
                           u1520 17B8                             u1440 1E60  
                           u1600 1A5A                             u2400 1158  
                           u2321 0CDA                             u2241 0BD2  
                           u2161 0ACA                             u2081 09C2  
                           u3017 09AA                             u1521 17B4  
                           u1441 1E5C                             u1601 1A56  
                           u2401 1154                             u2330 0CFC  
                           u2250 0BF4                             u2170 0AEC  
                           u2090 09E4                             u1530 180C  
                           u1450 1F44                             u1610 1AB0  
                           u2410 1212                             u2331 0CF8  
                           u2251 0BF0                             u2171 0AE8  
                           u3107 0AD4                             u2091 09E0  
                           u3027 09CC                             u1531 1808  
                           u1451 1F40                             u1611 1AAC  
                           u2411 120E                             u2260 0C1E  
                           u2180 0B16                             u1460 1684  
                           u1540 183E                             u1620 1AC0  
                           u1700 0DE4                             u2340 1C0E  
                           u2420 129C                             u2261 0C1A  
                           u2181 0B12                             u3117 0AF2  
                           u3037 09EA                             u1461 1680  
                           u1541 183A                             u1621 1ABC  
                           u1701 0DE0                             u2341 1C0A  
                           u2421 1298                             u2270 0C3C  
                           u2190 0B34                             u1470 16B6  
                           u1550 187C                             u1630 1EBE  
                           u1710 0F0E                             u2350 1C26  
                           u2271 0C38                             u3207 0C24  
                           u2191 0B30                             u3127 0B1C  
                           u3047 0A14                             u1471 16B2  
                           u1551 1878                             u1631 1EBA  
                           u1711 0F0A                             u2351 1C22  
                           u2280 0C5E                             u1800 1D3A  
                           u1560 18A6                             u1720 0F2C  
                           u1640 0D44                             u2360 1306  
                           u2281 0C5A                             u3217 0C42  
                           u3137 0B3A                             u3057 0A32  
                           u1801 1D36                             u1481 16E0  
                           u1561 18A2                             u1721 0F28  
                           u1641 0D3E                             u2361 1302  
                           u2290 0C7C                             u1810 1D50  
                           u1490 1704                             u1570 18D4  
                           u1730 0F46                             u1650 0D46  
                           u2370 13BA                             u2291 0C78  
                           u3227 0C64                             u3147 0B5C  
                           u3067 0A54                             u1811 1D4C  
                           u1491 1700                             u1571 18D0  
                           u1731 0F42                             u2371 13B6  
                           u1820 1D66                             u1900 1B26  
                           u1580 191C                             u1740 0F60  
                           u1660 0D5C                             u2380 10E0  
                           u3237 0C82                             u3157 0B7A  
                           u3077 0A72                             u1821 1D62  
                           u1581 1918                             u1741 0F5C  
                           u1661 0D58                             u2381 10DC  
                           u1910 1B5A                             u1590 1A38  
                           u1750 0F70                             u1670 0D8C  
                           u1830 14E2                             u2390 1116  
                           u3247 0CA4                             u3167 0B9C  
                           u3087 0A94                             u1591 1A34  
                           u1751 0F6C                             u1671 0D88  
                           u1831 14DE                             u2391 1112  
                           u1920 1B6A                             u1760 0F82  
                           u1680 0DA8                             u1840 152A  
                           u3257 0CC2                             u3177 0BBA  
                           u3097 0AB2                             u1921 1B66  
                           u1761 0F7E                             u1681 0DA4  
                           u1841 1526                             u1930 1F92  
                           u1770 0F92                             u1690 0DD6  
                           u1850 154E                             u3267 0CE4  
                           u3187 0BDC                             u1931 1F8A  
                           u1907 1B1C                             u1771 0F8E  
                           u1691 0DD2                             u1851 154A  
                           u1940 1F60                             u1780 0FAA  
                           u1860 15F2                             u3277 0D02  
                           u3197 0BFA                             u1941 1F5C  
                           u1917 1B50                             u1781 0FA6  
                           u1861 15EE                             u1950 1F6E  
                           u1790 1D24                             u1870 1D0A  
                           u1951 1F6A                             u1791 1D20  
                           u1871 1D06                             u2807 109C  
                           u1960 1F7C                             u1880 1C5E  
                           u1961 1F78                             u1881 1C5A  
                           u2817 1122                             u1970 1D86  
                           u1938 1F94                             u1890 1C92  
                           u1971 1D82                             u1891 1C8E  
                           u2907 1B90                             u2827 1194  
                           u1980 1D9A                             u1981 1D96  
                           u2917 1BA4                             u2837 11EE  
                           u1990 1DB6                             u1991 1DB2  
                           u2927 1FB6                             u2847 1274  
                           u2937 1FCE                             u2857 1398  
                           u2947 1FDA                             u2867 14AA  
                           u2957 1D88                             u2877 1F00  
                           u2797 1056                             u2967 090C  
                           u2887 1F12                             u2977 092A  
                           u2897 1B7C                             u2987 094C  
                           u2997 096A                  lcd_write_char@a 0004  
                lcd_write_char@y 0003           __end_of_lcd_write_char 1F1C  
                           abs@a 0013                             _dbuf 0100  
                           _main 0FF8                             _dtoa 0D14  
                           _prec 00C5                             _nout 00C1  
                           pad@i 0018                             pad@p 0015  
                           fsr1h 000FE2                             fsr2h 000FDA  
                           indf1 000FE7                             indf2 000FDF  
                           fsr1l 000FE1                             pad@w 001A  
                           fsr2l 000FD9                             start 0000  
               ??_DHT11_ReadData 0001                  __end_of_Lcd_Cmd 1FC4  
                   ___param_bank 000000                            ??_abs 0015  
                          ??_pad 0017         __end_of_encender_lampara 2000  
                __end_of___aodiv 17FA                            ?_main 0001  
                          ?_dtoa 001C                  __end_of___aomod 195E  
                          STR_10 08A6                            STR_11 0887  
                          STR_20 08E4                            STR_12 08B5  
                          STR_13 08E4                            STR_21 08CF  
                          STR_22 08EC                            STR_14 08DB  
                          STR_15 08EC                            STR_16 08C2  
                          STR_17 08E4                            STR_18 08DB  
                          STR_19 08EC                            _LATA0 007C48  
                  ??_Keypad_Init 0001                       _Buffer_LCD 00A1  
                   vfpfcnvrt@fmt 0042                            _TRISC 000F94  
                          _TRISD 000F95                     main@intentos 009D  
                          _dht11 12B0                            _clave 00DC  
                          _flags 00C7                            _fputc 195E  
                          _fputs 1E1E                            pad@fp 0011  
                          _width 00C3                            _putch 203E  
                          main@j 009F                            dtoa@d 001E  
                          dtoa@i 003E                            dtoa@n 0036  
                          dtoa@p 0030                            dtoa@s 0034  
                          dtoa@w 0032                            tablat 000FF5  
                ?_lcd_write_char 0001                     ?_LDR_funcion 0001  
                          status 000FD8                  __end_of_sprintf 1E1E  
               __end_of_Lcd_Port 1D70                  __initialization 1E62  
                   __end_of_main 12B0                     __end_of_dtoa 0FF8  
                         ??_main 007D                           ??_dtoa 0026  
                  __activetblptr 000002                           ?_dht11 0001  
                         ?_fputc 0001                           ?_fputs 000A  
                         ?_putch 0001              _DHT11_CheckResponse 1F52  
            __end_of_Keypad_Init 2012                           _OSCCON 000FD3  
                      ??_Lcd_Cmd 0002                     vfprintf@cfmt 0056  
               __end_of_lcd_init 1BE0                 __end_of_lcd_putc 1B6C  
                      ??___aodiv 0011                        ??___aomod 0011  
           ?_DHT11_CheckResponse 0001                           clear_0 1E88  
                         clear_1 1E94                           isa$std 000001  
                         pad@buf 0013                           dtoa@fp 001C  
                         _strcmp 1BE0                           _strlen 1F1C  
                         fputc@c 0001                           fputs@c 000E  
                         fputs@i 000F                           fputs@s 000A  
                   __mediumconst 0000                           tblptrh 000FF7  
                         tblptrl 000FF6                           tblptru 000FF8  
                         putch@c 0001                 __end_of_vfprintf 1D14  
                      ??_sprintf 0060         ?_Configuracion_Registros 0001  
                     __accesstop 0060          __end_of__initialization 1E9A  
                  ___rparam_used 000001                   __pcstackCOMRAM 0001  
                   __pidataBANK0 2012            ??_DHT11_CheckResponse 0001  
                  __end_of_dht11 14BE                    __end_of_fputc 1A28  
                  __end_of_fputs 1E62                    __end_of_putch 2040  
                 lcd_gotoxy@temp 0008                      _Keypad_Init 2000  
                        ??_dht11 006D                        ?_Lcd_Port 0001  
                        ??_fputc 0005                          ??_fputs 000E  
                        ??_putch 0001                       dht11@value 006F  
              _Tiempo_Incorrecto 00D4                       __pbssBANK0 00A1  
                     __pbssBANK1 0100                ?_encender_lampara 0001  
                        ?_strcmp 0001                          ?_strlen 0001  
             ??_encender_lampara 0003                       _buffer_ldr 00B1  
                     _lcd_gotoxy 1C4C  __end_of_Configuracion_Registros 203E  
               ??_lcd_write_char 0002                       ??_Lcd_Port 0001  
                      ?_lcd_init 0001                        ?_lcd_putc 0005  
             lcd_write_char@temp 0002                          _Lcd_Cmd 1FA4  
                  ??_DHT11_Start 0001                          __Hparam 0000  
                        __Lparam 0000                __end_of_lcd_clear 2032  
                        ___aodiv 1672                          ___aomod 17FA  
                      ?_vfprintf 0050                     __psmallconst 0800  
                        __pcinit 1E62                          __ramtop 0800  
                        __ptext0 0FF8                          __ptext1 1BE0  
                        __ptext2 12B0                          __ptext3 1DCC  
                        __ptext4 1CB2                          __ptext5 14BE  
                        __ptext6 0D14                          __ptext7 1A28  
                        __ptext8 1F1C                          __ptext9 1E1E  
                        _sprintf 1DCC                       ??_lcd_init 0004  
                     ??_lcd_putc 0007             end_of_initialization 1E9A  
              ??_Keypad_Get_Char 0001                          fputc@fp 0003  
                  __Lmediumconst 0000                          fputs@fp 000C  
              __end_of_vfpfcnvrt 1672              __end_of_DHT11_Start 1FE4  
                        postdec1 000FE5                          postdec2 000FDD  
                        postinc0 000FEE                          postinc1 000FE6  
                        postinc2 000FDE                        Lcd_Port@a 0001  
                     ??_vfprintf 0056                          strcmp@l 0001  
                        strcmp@r 0003                          strlen@a 0003  
                        strlen@s 0001                        _PORTAbits 000F80  
                      _PORTBbits 000F81                        _TRISAbits 000F92  
                      _TRISBbits 000F93                      ?_lcd_gotoxy 0004  
                     main@tiempo 007F               DHT11_ReadData@data 0002  
                    vfpfcnvrt@ap 0044                      vfpfcnvrt@fp 0040  
                    vfpfcnvrt@ll 0048                     ?_Keypad_Init 0001  
                 __end_of_strcmp 1C4C                   __end_of_strlen 1F52  
            start_initialization 1E62                  _Tiempo_Apertura 00D8  
                    __end_of_abs 1EE4                      __end_of_pad 1AEE  
            LDR_funcion@ldr_data 0004                      _DHT11_Start 1FC4  
    __end_of_DHT11_CheckResponse 1F7E                      vfprintf@fmt 0052  
                dht11@T_Integral 007C                      __pdataBANK0 00D0  
                       ??_strcmp 0005                         ??_strlen 0003  
                  __pcstackBANK0 0060                 ___aodiv@dividend 0001  
                  ??_LDR_funcion 0003                         ?_Lcd_Cmd 0001  
                 _tiempo_bloqueo 00D0                        _dtoa$1081 002E  
                       ?___aodiv 0001                         ?___aomod 0001  
               ___aodiv@quotient 0013                        _lcd_clear 2024  
                 _DHT11_ReadData 1D70                      __smallconst 0800  
                _Keypad_Get_Char 08F0                   _Contador_Tecla 00CA  
                       ?_sprintf 0058                         _LATBbits 000F8A  
                       _LATCbits 000F8B                         _LATDbits 000F8C  
                       Lcd_Cmd@a 0003              __end_of_LDR_funcion 1FA4  
        _Configuracion_Registros 2032           __end_of_DHT11_ReadData 1DCC  
                     ?_lcd_clear 0001                        _vfpfcnvrt 14BE  
                     _ADCON1bits 000FC1                        lcd_putc@a 0005  
                      lcd_putc@i 0009                     ??_lcd_gotoxy 0005  
                       _Lcd_Port 1D14                        copy_data0 1E76  
                       _Password 00CB                         __Hrparam 0000  
                     vfprintf@ap 0054                         __Lrparam 0000  
                     vfprintf@fp 0050               __end_of_lcd_gotoxy 1CB2  
        __end_of_Keypad_Get_Char 0D14                  ?_DHT11_ReadData 0001  
                     ?_vfpfcnvrt 0040                  DHT11_ReadData@i 0001  
                ___aodiv@divisor 0009                  ___aodiv@counter 0011  
                     sprintf@fmt 005A                         __ptext10 195E  
                       __ptext11 203E                         __ptext20 1FA4  
                       __ptext12 1EA4                         __ptext21 1D14  
                       __ptext13 17FA                         __ptext22 1FE4  
                       __ptext14 1672                         __ptext23 1F7E  
                       __ptext15 1AEE                         __ptext24 1FC4  
                       __ptext16 1EE4                         __ptext25 1D70  
                       __ptext17 1B6C                         __ptext26 1F52  
                       __ptext18 1C4C                         __ptext27 2032  
                       __ptext19 2024                         __ptext28 2000  
                       __ptext29 08F0                         _lcd_init 1B6C  
                       _lcd_putc 1AEE                 _encender_lampara 1FE4  
                    _LDR_funcion 1F7E                     ?_DHT11_Start 0001  
      ??_Configuracion_Registros 0001                         isa$xinst 000000  
                       _vfprintf 1CB2                      ??_lcd_clear 0004  
               ___aomod@dividend 0001                        sprintf@ap 0060  
               ?_Keypad_Get_Char 0001                  ___aomod@divisor 0009  
                    ??_vfpfcnvrt 0046                  ___aomod@counter 0011  
                 dht11@ldr_ouput 0079       encender_lampara@ldr_output 0001  
                       sprintf@f 0062                         sprintf@s 0058  
                   ___aodiv@sign 0012                   _lcd_write_char 1EE4  
                   ___aomod@sign 0012                 dht11@RH_Integral 007B  
